Archive member included to satisfy reference by file (symbol)

./libwrap.a(malloc.o)         circular_buffer.o (__wrap_malloc)
./libwrap.a(write.o)          /local/gerum/speech_recognition/external/hannah-tvm/tmp/TGC-VP/fw/bsp/env/tgfs-vp/init.o (__wrap_write)
./libwrap.a(isatty.o)         ./libwrap.a(write.o) (__wrap_isatty)
./libwrap.a(sbrk.o)           ./libwrap.a(malloc.o) (__wrap_sbrk)
./libwrap.a(_exit.o)          /local/gerum/speech_recognition/external/hannah-tvm/tmp/TGC-VP/fw/bsp/env/tgfs-vp/init.o (__wrap__exit)
./libwrap.a(puts.o)           crt/src/runtime/crt/graph_executor/load_json.o (__wrap_puts)
./libwrap.a(write_hex.o)      ./libwrap.a(_exit.o) (write_hex)
./libwrap.a(printf.o)         main.o (__wrap_printf)
/opt/pulp-riscv-gcc/bin/../lib/gcc/riscv32-unknown-elf/7.1.1/../../../../riscv32-unknown-elf/lib/libc.a(lib_a-assert.o)
                              circular_buffer.o (__assert_func)
/opt/pulp-riscv-gcc/bin/../lib/gcc/riscv32-unknown-elf/7.1.1/../../../../riscv32-unknown-elf/lib/libc.a(lib_a-atexit.o)
                              /local/gerum/speech_recognition/external/hannah-tvm/tmp/TGC-VP/fw/bsp/env/start.o (atexit)
/opt/pulp-riscv-gcc/bin/../lib/gcc/riscv32-unknown-elf/7.1.1/../../../../riscv32-unknown-elf/lib/libc.a(lib_a-exit.o)
                              /local/gerum/speech_recognition/external/hannah-tvm/tmp/TGC-VP/fw/bsp/env/start.o (exit)
/opt/pulp-riscv-gcc/bin/../lib/gcc/riscv32-unknown-elf/7.1.1/../../../../riscv32-unknown-elf/lib/libc.a(lib_a-fini.o)
                              /local/gerum/speech_recognition/external/hannah-tvm/tmp/TGC-VP/fw/bsp/env/start.o (__libc_fini_array)
/opt/pulp-riscv-gcc/bin/../lib/gcc/riscv32-unknown-elf/7.1.1/../../../../riscv32-unknown-elf/lib/libc.a(lib_a-fiprintf.o)
                              /opt/pulp-riscv-gcc/bin/../lib/gcc/riscv32-unknown-elf/7.1.1/../../../../riscv32-unknown-elf/lib/libc.a(lib_a-assert.o) (fiprintf)
/opt/pulp-riscv-gcc/bin/../lib/gcc/riscv32-unknown-elf/7.1.1/../../../../riscv32-unknown-elf/lib/libc.a(lib_a-fprintf.o)
                              crt/src/runtime/crt/common/ndarray.o (fprintf)
/opt/pulp-riscv-gcc/bin/../lib/gcc/riscv32-unknown-elf/7.1.1/../../../../riscv32-unknown-elf/lib/libc.a(lib_a-fwrite.o)
                              crt/src/runtime/crt/common/ndarray.o (fwrite)
/opt/pulp-riscv-gcc/bin/../lib/gcc/riscv32-unknown-elf/7.1.1/../../../../riscv32-unknown-elf/lib/libc.a(lib_a-impure.o)
                              /opt/pulp-riscv-gcc/bin/../lib/gcc/riscv32-unknown-elf/7.1.1/../../../../riscv32-unknown-elf/lib/libc.a(lib_a-exit.o) (_global_impure_ptr)
/opt/pulp-riscv-gcc/bin/../lib/gcc/riscv32-unknown-elf/7.1.1/../../../../riscv32-unknown-elf/lib/libc.a(lib_a-init.o)
                              /local/gerum/speech_recognition/external/hannah-tvm/tmp/TGC-VP/fw/bsp/env/start.o (__libc_init_array)
/opt/pulp-riscv-gcc/bin/../lib/gcc/riscv32-unknown-elf/7.1.1/../../../../riscv32-unknown-elf/lib/libc.a(lib_a-locale.o)
                              crt/src/runtime/crt/graph_executor/load_json.o (__locale_ctype_ptr)
/opt/pulp-riscv-gcc/bin/../lib/gcc/riscv32-unknown-elf/7.1.1/../../../../riscv32-unknown-elf/lib/libc.a(lib_a-mbtowc_r.o)
                              /opt/pulp-riscv-gcc/bin/../lib/gcc/riscv32-unknown-elf/7.1.1/../../../../riscv32-unknown-elf/lib/libc.a(lib_a-locale.o) (__ascii_mbtowc)
/opt/pulp-riscv-gcc/bin/../lib/gcc/riscv32-unknown-elf/7.1.1/../../../../riscv32-unknown-elf/lib/libc.a(lib_a-memcpy.o)
                              crt/src/runtime/crt/common/crt_runtime_api.o (memcpy)
/opt/pulp-riscv-gcc/bin/../lib/gcc/riscv32-unknown-elf/7.1.1/../../../../riscv32-unknown-elf/lib/libc.a(lib_a-memset.o)
                              crt/src/runtime/crt/common/ndarray.o (memset)
/opt/pulp-riscv-gcc/bin/../lib/gcc/riscv32-unknown-elf/7.1.1/../../../../riscv32-unknown-elf/lib/libc.a(lib_a-snprintf.o)
                              crt/src/runtime/crt/common/packed_func.o (snprintf)
/opt/pulp-riscv-gcc/bin/../lib/gcc/riscv32-unknown-elf/7.1.1/../../../../riscv32-unknown-elf/lib/libc.a(lib_a-strcmp.o)
                              crt/src/runtime/crt/common/packed_func.o (strcmp)
/opt/pulp-riscv-gcc/bin/../lib/gcc/riscv32-unknown-elf/7.1.1/../../../../riscv32-unknown-elf/lib/libc.a(lib_a-strlen.o)
                              crt/src/runtime/crt/common/func_registry.o (strlen)
/opt/pulp-riscv-gcc/bin/../lib/gcc/riscv32-unknown-elf/7.1.1/../../../../riscv32-unknown-elf/lib/libc.a(lib_a-strncmp.o)
                              crt/src/runtime/crt/common/packed_func.o (strncmp)
/opt/pulp-riscv-gcc/bin/../lib/gcc/riscv32-unknown-elf/7.1.1/../../../../riscv32-unknown-elf/lib/libc.a(lib_a-strncpy.o)
                              crt/src/runtime/crt/common/crt_runtime_api.o (strncpy)
/opt/pulp-riscv-gcc/bin/../lib/gcc/riscv32-unknown-elf/7.1.1/../../../../riscv32-unknown-elf/lib/libc.a(lib_a-strnlen.o)
                              ./libwrap.a(printf.o) (strnlen)
/opt/pulp-riscv-gcc/bin/../lib/gcc/riscv32-unknown-elf/7.1.1/../../../../riscv32-unknown-elf/lib/libc.a(lib_a-strtol.o)
                              crt/src/runtime/crt/graph_executor/load_json.o (strtol)
/opt/pulp-riscv-gcc/bin/../lib/gcc/riscv32-unknown-elf/7.1.1/../../../../riscv32-unknown-elf/lib/libc.a(lib_a-strtoul.o)
                              crt/src/runtime/crt/common/packed_func.o (strtoul)
/opt/pulp-riscv-gcc/bin/../lib/gcc/riscv32-unknown-elf/7.1.1/../../../../riscv32-unknown-elf/lib/libc.a(lib_a-svfprintf.o)
                              /opt/pulp-riscv-gcc/bin/../lib/gcc/riscv32-unknown-elf/7.1.1/../../../../riscv32-unknown-elf/lib/libc.a(lib_a-snprintf.o) (_svfprintf_r)
/opt/pulp-riscv-gcc/bin/../lib/gcc/riscv32-unknown-elf/7.1.1/../../../../riscv32-unknown-elf/lib/libc.a(lib_a-vfiprintf.o)
                              /opt/pulp-riscv-gcc/bin/../lib/gcc/riscv32-unknown-elf/7.1.1/../../../../riscv32-unknown-elf/lib/libc.a(lib_a-fiprintf.o) (_vfiprintf_r)
/opt/pulp-riscv-gcc/bin/../lib/gcc/riscv32-unknown-elf/7.1.1/../../../../riscv32-unknown-elf/lib/libc.a(lib_a-vfprintf.o)
                              /opt/pulp-riscv-gcc/bin/../lib/gcc/riscv32-unknown-elf/7.1.1/../../../../riscv32-unknown-elf/lib/libc.a(lib_a-fprintf.o) (_vfprintf_r)
/opt/pulp-riscv-gcc/bin/../lib/gcc/riscv32-unknown-elf/7.1.1/../../../../riscv32-unknown-elf/lib/libc.a(lib_a-vsnprintf.o)
                              main.o (vsnprintf)
/opt/pulp-riscv-gcc/bin/../lib/gcc/riscv32-unknown-elf/7.1.1/../../../../riscv32-unknown-elf/lib/libc.a(lib_a-wctomb_r.o)
                              /opt/pulp-riscv-gcc/bin/../lib/gcc/riscv32-unknown-elf/7.1.1/../../../../riscv32-unknown-elf/lib/libc.a(lib_a-locale.o) (__ascii_wctomb)
/opt/pulp-riscv-gcc/bin/../lib/gcc/riscv32-unknown-elf/7.1.1/../../../../riscv32-unknown-elf/lib/libc.a(lib_a-wsetup.o)
                              /opt/pulp-riscv-gcc/bin/../lib/gcc/riscv32-unknown-elf/7.1.1/../../../../riscv32-unknown-elf/lib/libc.a(lib_a-vfiprintf.o) (__swsetup_r)
/opt/pulp-riscv-gcc/bin/../lib/gcc/riscv32-unknown-elf/7.1.1/../../../../riscv32-unknown-elf/lib/libc.a(lib_a-abort.o)
                              /opt/pulp-riscv-gcc/bin/../lib/gcc/riscv32-unknown-elf/7.1.1/../../../../riscv32-unknown-elf/lib/libc.a(lib_a-assert.o) (abort)
/opt/pulp-riscv-gcc/bin/../lib/gcc/riscv32-unknown-elf/7.1.1/../../../../riscv32-unknown-elf/lib/libc.a(lib_a-__atexit.o)
                              /opt/pulp-riscv-gcc/bin/../lib/gcc/riscv32-unknown-elf/7.1.1/../../../../riscv32-unknown-elf/lib/libc.a(lib_a-atexit.o) (__register_exitproc)
/opt/pulp-riscv-gcc/bin/../lib/gcc/riscv32-unknown-elf/7.1.1/../../../../riscv32-unknown-elf/lib/libc.a(lib_a-__call_atexit.o)
                              /opt/pulp-riscv-gcc/bin/../lib/gcc/riscv32-unknown-elf/7.1.1/../../../../riscv32-unknown-elf/lib/libc.a(lib_a-exit.o) (__call_exitprocs)
/opt/pulp-riscv-gcc/bin/../lib/gcc/riscv32-unknown-elf/7.1.1/../../../../riscv32-unknown-elf/lib/libc.a(lib_a-ctype_.o)
                              /opt/pulp-riscv-gcc/bin/../lib/gcc/riscv32-unknown-elf/7.1.1/../../../../riscv32-unknown-elf/lib/libc.a(lib_a-locale.o) (_ctype_)
/opt/pulp-riscv-gcc/bin/../lib/gcc/riscv32-unknown-elf/7.1.1/../../../../riscv32-unknown-elf/lib/libc.a(lib_a-fflush.o)
                              /opt/pulp-riscv-gcc/bin/../lib/gcc/riscv32-unknown-elf/7.1.1/../../../../riscv32-unknown-elf/lib/libc.a(lib_a-vfiprintf.o) (_fflush_r)
/opt/pulp-riscv-gcc/bin/../lib/gcc/riscv32-unknown-elf/7.1.1/../../../../riscv32-unknown-elf/lib/libc.a(lib_a-findfp.o)
                              /opt/pulp-riscv-gcc/bin/../lib/gcc/riscv32-unknown-elf/7.1.1/../../../../riscv32-unknown-elf/lib/libc.a(lib_a-fwrite.o) (__sinit)
/opt/pulp-riscv-gcc/bin/../lib/gcc/riscv32-unknown-elf/7.1.1/../../../../riscv32-unknown-elf/lib/libc.a(lib_a-fputwc.o)
                              /opt/pulp-riscv-gcc/bin/../lib/gcc/riscv32-unknown-elf/7.1.1/../../../../riscv32-unknown-elf/lib/libc.a(lib_a-vfiprintf.o) (_fputwc_r)
/opt/pulp-riscv-gcc/bin/../lib/gcc/riscv32-unknown-elf/7.1.1/../../../../riscv32-unknown-elf/lib/libc.a(lib_a-freer.o)
                              /opt/pulp-riscv-gcc/bin/../lib/gcc/riscv32-unknown-elf/7.1.1/../../../../riscv32-unknown-elf/lib/libc.a(lib_a-svfprintf.o) (_free_r)
/opt/pulp-riscv-gcc/bin/../lib/gcc/riscv32-unknown-elf/7.1.1/../../../../riscv32-unknown-elf/lib/libc.a(lib_a-fvwrite.o)
                              /opt/pulp-riscv-gcc/bin/../lib/gcc/riscv32-unknown-elf/7.1.1/../../../../riscv32-unknown-elf/lib/libc.a(lib_a-fwrite.o) (__sfvwrite_r)
/opt/pulp-riscv-gcc/bin/../lib/gcc/riscv32-unknown-elf/7.1.1/../../../../riscv32-unknown-elf/lib/libc.a(lib_a-fwalk.o)
                              /opt/pulp-riscv-gcc/bin/../lib/gcc/riscv32-unknown-elf/7.1.1/../../../../riscv32-unknown-elf/lib/libc.a(lib_a-findfp.o) (_fwalk)
/opt/pulp-riscv-gcc/bin/../lib/gcc/riscv32-unknown-elf/7.1.1/../../../../riscv32-unknown-elf/lib/libc.a(lib_a-ldtoa.o)
                              /opt/pulp-riscv-gcc/bin/../lib/gcc/riscv32-unknown-elf/7.1.1/../../../../riscv32-unknown-elf/lib/libc.a(lib_a-svfprintf.o) (_ldtoa_r)
/opt/pulp-riscv-gcc/bin/../lib/gcc/riscv32-unknown-elf/7.1.1/../../../../riscv32-unknown-elf/lib/libc.a(lib_a-localeconv.o)
                              /opt/pulp-riscv-gcc/bin/../lib/gcc/riscv32-unknown-elf/7.1.1/../../../../riscv32-unknown-elf/lib/libc.a(lib_a-svfprintf.o) (_localeconv_r)
/opt/pulp-riscv-gcc/bin/../lib/gcc/riscv32-unknown-elf/7.1.1/../../../../riscv32-unknown-elf/lib/libc.a(lib_a-makebuf.o)
                              /opt/pulp-riscv-gcc/bin/../lib/gcc/riscv32-unknown-elf/7.1.1/../../../../riscv32-unknown-elf/lib/libc.a(lib_a-wsetup.o) (__smakebuf_r)
/opt/pulp-riscv-gcc/bin/../lib/gcc/riscv32-unknown-elf/7.1.1/../../../../riscv32-unknown-elf/lib/libc.a(lib_a-mallocr.o)
                              /opt/pulp-riscv-gcc/bin/../lib/gcc/riscv32-unknown-elf/7.1.1/../../../../riscv32-unknown-elf/lib/libc.a(lib_a-svfprintf.o) (_malloc_r)
/opt/pulp-riscv-gcc/bin/../lib/gcc/riscv32-unknown-elf/7.1.1/../../../../riscv32-unknown-elf/lib/libc.a(lib_a-memchr.o)
                              /opt/pulp-riscv-gcc/bin/../lib/gcc/riscv32-unknown-elf/7.1.1/../../../../riscv32-unknown-elf/lib/libc.a(lib_a-svfprintf.o) (memchr)
/opt/pulp-riscv-gcc/bin/../lib/gcc/riscv32-unknown-elf/7.1.1/../../../../riscv32-unknown-elf/lib/libc.a(lib_a-memmove.o)
                              /opt/pulp-riscv-gcc/bin/../lib/gcc/riscv32-unknown-elf/7.1.1/../../../../riscv32-unknown-elf/lib/libc.a(lib_a-fvwrite.o) (memmove)
/opt/pulp-riscv-gcc/bin/../lib/gcc/riscv32-unknown-elf/7.1.1/../../../../riscv32-unknown-elf/lib/libc.a(lib_a-mlock.o)
                              /opt/pulp-riscv-gcc/bin/../lib/gcc/riscv32-unknown-elf/7.1.1/../../../../riscv32-unknown-elf/lib/libc.a(lib_a-freer.o) (__malloc_lock)
/opt/pulp-riscv-gcc/bin/../lib/gcc/riscv32-unknown-elf/7.1.1/../../../../riscv32-unknown-elf/lib/libc.a(lib_a-mprec.o)
                              /opt/pulp-riscv-gcc/bin/../lib/gcc/riscv32-unknown-elf/7.1.1/../../../../riscv32-unknown-elf/lib/libc.a(lib_a-ldtoa.o) (_Balloc)
/opt/pulp-riscv-gcc/bin/../lib/gcc/riscv32-unknown-elf/7.1.1/../../../../riscv32-unknown-elf/lib/libc.a(lib_a-reallocr.o)
                              /opt/pulp-riscv-gcc/bin/../lib/gcc/riscv32-unknown-elf/7.1.1/../../../../riscv32-unknown-elf/lib/libc.a(lib_a-fvwrite.o) (_realloc_r)
/opt/pulp-riscv-gcc/bin/../lib/gcc/riscv32-unknown-elf/7.1.1/../../../../riscv32-unknown-elf/lib/libc.a(lib_a-sbrkr.o)
                              /opt/pulp-riscv-gcc/bin/../lib/gcc/riscv32-unknown-elf/7.1.1/../../../../riscv32-unknown-elf/lib/libc.a(lib_a-freer.o) (_sbrk_r)
/opt/pulp-riscv-gcc/bin/../lib/gcc/riscv32-unknown-elf/7.1.1/../../../../riscv32-unknown-elf/lib/libc.a(lib_a-s_frexp.o)
                              /opt/pulp-riscv-gcc/bin/../lib/gcc/riscv32-unknown-elf/7.1.1/../../../../riscv32-unknown-elf/lib/libc.a(lib_a-svfprintf.o) (frexp)
/opt/pulp-riscv-gcc/bin/../lib/gcc/riscv32-unknown-elf/7.1.1/../../../../riscv32-unknown-elf/lib/libc.a(lib_a-signal.o)
                              /opt/pulp-riscv-gcc/bin/../lib/gcc/riscv32-unknown-elf/7.1.1/../../../../riscv32-unknown-elf/lib/libc.a(lib_a-abort.o) (raise)
/opt/pulp-riscv-gcc/bin/../lib/gcc/riscv32-unknown-elf/7.1.1/../../../../riscv32-unknown-elf/lib/libc.a(lib_a-signalr.o)
                              /opt/pulp-riscv-gcc/bin/../lib/gcc/riscv32-unknown-elf/7.1.1/../../../../riscv32-unknown-elf/lib/libc.a(lib_a-signal.o) (_kill_r)
/opt/pulp-riscv-gcc/bin/../lib/gcc/riscv32-unknown-elf/7.1.1/../../../../riscv32-unknown-elf/lib/libc.a(lib_a-sprintf.o)
                              /opt/pulp-riscv-gcc/bin/../lib/gcc/riscv32-unknown-elf/7.1.1/../../../../riscv32-unknown-elf/lib/libc.a(lib_a-ldtoa.o) (sprintf)
/opt/pulp-riscv-gcc/bin/../lib/gcc/riscv32-unknown-elf/7.1.1/../../../../riscv32-unknown-elf/lib/libc.a(lib_a-stdio.o)
                              /opt/pulp-riscv-gcc/bin/../lib/gcc/riscv32-unknown-elf/7.1.1/../../../../riscv32-unknown-elf/lib/libc.a(lib_a-findfp.o) (__sread)
/opt/pulp-riscv-gcc/bin/../lib/gcc/riscv32-unknown-elf/7.1.1/../../../../riscv32-unknown-elf/lib/libc.a(lib_a-strcpy.o)
                              /opt/pulp-riscv-gcc/bin/../lib/gcc/riscv32-unknown-elf/7.1.1/../../../../riscv32-unknown-elf/lib/libc.a(lib_a-ldtoa.o) (strcpy)
/opt/pulp-riscv-gcc/bin/../lib/gcc/riscv32-unknown-elf/7.1.1/../../../../riscv32-unknown-elf/lib/libc.a(lib_a-svfiprintf.o)
                              /opt/pulp-riscv-gcc/bin/../lib/gcc/riscv32-unknown-elf/7.1.1/../../../../riscv32-unknown-elf/lib/libc.a(lib_a-svfprintf.o) (__ssprint_r)
/opt/pulp-riscv-gcc/bin/../lib/gcc/riscv32-unknown-elf/7.1.1/../../../../riscv32-unknown-elf/lib/libc.a(lib_a-wbuf.o)
                              /opt/pulp-riscv-gcc/bin/../lib/gcc/riscv32-unknown-elf/7.1.1/../../../../riscv32-unknown-elf/lib/libc.a(lib_a-fputwc.o) (__swbuf_r)
/opt/pulp-riscv-gcc/bin/../lib/gcc/riscv32-unknown-elf/7.1.1/../../../../riscv32-unknown-elf/lib/libc.a(lib_a-wcrtomb.o)
                              /opt/pulp-riscv-gcc/bin/../lib/gcc/riscv32-unknown-elf/7.1.1/../../../../riscv32-unknown-elf/lib/libc.a(lib_a-fputwc.o) (_wcrtomb_r)
/opt/pulp-riscv-gcc/bin/../lib/gcc/riscv32-unknown-elf/7.1.1/../../../../riscv32-unknown-elf/lib/libc.a(lib_a-writer.o)
                              /opt/pulp-riscv-gcc/bin/../lib/gcc/riscv32-unknown-elf/7.1.1/../../../../riscv32-unknown-elf/lib/libc.a(lib_a-stdio.o) (_write_r)
/opt/pulp-riscv-gcc/bin/../lib/gcc/riscv32-unknown-elf/7.1.1/../../../../riscv32-unknown-elf/lib/libc.a(lib_a-callocr.o)
                              /opt/pulp-riscv-gcc/bin/../lib/gcc/riscv32-unknown-elf/7.1.1/../../../../riscv32-unknown-elf/lib/libc.a(lib_a-mprec.o) (_calloc_r)
/opt/pulp-riscv-gcc/bin/../lib/gcc/riscv32-unknown-elf/7.1.1/../../../../riscv32-unknown-elf/lib/libc.a(lib_a-closer.o)
                              /opt/pulp-riscv-gcc/bin/../lib/gcc/riscv32-unknown-elf/7.1.1/../../../../riscv32-unknown-elf/lib/libc.a(lib_a-stdio.o) (_close_r)
/opt/pulp-riscv-gcc/bin/../lib/gcc/riscv32-unknown-elf/7.1.1/../../../../riscv32-unknown-elf/lib/libc.a(lib_a-fclose.o)
                              /opt/pulp-riscv-gcc/bin/../lib/gcc/riscv32-unknown-elf/7.1.1/../../../../riscv32-unknown-elf/lib/libc.a(lib_a-findfp.o) (_fclose_r)
/opt/pulp-riscv-gcc/bin/../lib/gcc/riscv32-unknown-elf/7.1.1/../../../../riscv32-unknown-elf/lib/libc.a(lib_a-fstatr.o)
                              /opt/pulp-riscv-gcc/bin/../lib/gcc/riscv32-unknown-elf/7.1.1/../../../../riscv32-unknown-elf/lib/libc.a(lib_a-makebuf.o) (_fstat_r)
/opt/pulp-riscv-gcc/bin/../lib/gcc/riscv32-unknown-elf/7.1.1/../../../../riscv32-unknown-elf/lib/libc.a(lib_a-isattyr.o)
                              /opt/pulp-riscv-gcc/bin/../lib/gcc/riscv32-unknown-elf/7.1.1/../../../../riscv32-unknown-elf/lib/libc.a(lib_a-makebuf.o) (_isatty_r)
/opt/pulp-riscv-gcc/bin/../lib/gcc/riscv32-unknown-elf/7.1.1/../../../../riscv32-unknown-elf/lib/libc.a(lib_a-lseekr.o)
                              /opt/pulp-riscv-gcc/bin/../lib/gcc/riscv32-unknown-elf/7.1.1/../../../../riscv32-unknown-elf/lib/libc.a(lib_a-stdio.o) (_lseek_r)
/opt/pulp-riscv-gcc/bin/../lib/gcc/riscv32-unknown-elf/7.1.1/../../../../riscv32-unknown-elf/lib/libc.a(lib_a-readr.o)
                              /opt/pulp-riscv-gcc/bin/../lib/gcc/riscv32-unknown-elf/7.1.1/../../../../riscv32-unknown-elf/lib/libc.a(lib_a-stdio.o) (_read_r)
/opt/pulp-riscv-gcc/bin/../lib/gcc/riscv32-unknown-elf/7.1.1/../../../../riscv32-unknown-elf/lib/libc.a(lib_a-reent.o)
                              /opt/pulp-riscv-gcc/bin/../lib/gcc/riscv32-unknown-elf/7.1.1/../../../../riscv32-unknown-elf/lib/libc.a(lib_a-sbrkr.o) (errno)
./libwrap.a(lseek.o)          /opt/pulp-riscv-gcc/bin/../lib/gcc/riscv32-unknown-elf/7.1.1/../../../../riscv32-unknown-elf/lib/libc.a(lib_a-lseekr.o) (__wrap_lseek)
./libwrap.a(read.o)           /opt/pulp-riscv-gcc/bin/../lib/gcc/riscv32-unknown-elf/7.1.1/../../../../riscv32-unknown-elf/lib/libc.a(lib_a-readr.o) (__wrap_read)
./libwrap.a(fstat.o)          /opt/pulp-riscv-gcc/bin/../lib/gcc/riscv32-unknown-elf/7.1.1/../../../../riscv32-unknown-elf/lib/libc.a(lib_a-fstatr.o) (__wrap_fstat)
./libwrap.a(close.o)          /opt/pulp-riscv-gcc/bin/../lib/gcc/riscv32-unknown-elf/7.1.1/../../../../riscv32-unknown-elf/lib/libc.a(lib_a-closer.o) (__wrap_close)
./libwrap.a(getpid.o)         /opt/pulp-riscv-gcc/bin/../lib/gcc/riscv32-unknown-elf/7.1.1/../../../../riscv32-unknown-elf/lib/libc.a(lib_a-signalr.o) (__wrap_getpid)
./libwrap.a(kill.o)           /opt/pulp-riscv-gcc/bin/../lib/gcc/riscv32-unknown-elf/7.1.1/../../../../riscv32-unknown-elf/lib/libc.a(lib_a-signalr.o) (__wrap_kill)
/opt/pulp-riscv-gcc/bin/../lib/gcc/riscv32-unknown-elf/7.1.1/libgcc.a(_divdi3.o)
                              crt/src/runtime/crt/memory/page_allocator.o (__divdi3)
/opt/pulp-riscv-gcc/bin/../lib/gcc/riscv32-unknown-elf/7.1.1/libgcc.a(_udivdi3.o)
                              /opt/pulp-riscv-gcc/bin/../lib/gcc/riscv32-unknown-elf/7.1.1/../../../../riscv32-unknown-elf/lib/libc.a(lib_a-svfprintf.o) (__udivdi3)
/opt/pulp-riscv-gcc/bin/../lib/gcc/riscv32-unknown-elf/7.1.1/libgcc.a(_umoddi3.o)
                              /opt/pulp-riscv-gcc/bin/../lib/gcc/riscv32-unknown-elf/7.1.1/../../../../riscv32-unknown-elf/lib/libc.a(lib_a-svfprintf.o) (__umoddi3)
/opt/pulp-riscv-gcc/bin/../lib/gcc/riscv32-unknown-elf/7.1.1/libgcc.a(adddf3.o)
                              crt/src/runtime/crt/common/crt_runtime_api.o (__adddf3)
/opt/pulp-riscv-gcc/bin/../lib/gcc/riscv32-unknown-elf/7.1.1/libgcc.a(divdf3.o)
                              crt/src/runtime/crt/common/crt_runtime_api.o (__divdf3)
/opt/pulp-riscv-gcc/bin/../lib/gcc/riscv32-unknown-elf/7.1.1/libgcc.a(ledf2.o)
                              crt/src/runtime/crt/common/crt_runtime_api.o (__ltdf2)
/opt/pulp-riscv-gcc/bin/../lib/gcc/riscv32-unknown-elf/7.1.1/libgcc.a(muldf3.o)
                              /opt/pulp-riscv-gcc/bin/../lib/gcc/riscv32-unknown-elf/7.1.1/../../../../riscv32-unknown-elf/lib/libc.a(lib_a-mprec.o) (__muldf3)
/opt/pulp-riscv-gcc/bin/../lib/gcc/riscv32-unknown-elf/7.1.1/libgcc.a(floatsidf.o)
                              crt/src/runtime/crt/common/crt_runtime_api.o (__floatsidf)
/opt/pulp-riscv-gcc/bin/../lib/gcc/riscv32-unknown-elf/7.1.1/libgcc.a(eqtf2.o)
                              /opt/pulp-riscv-gcc/bin/../lib/gcc/riscv32-unknown-elf/7.1.1/../../../../riscv32-unknown-elf/lib/libc.a(lib_a-svfprintf.o) (__eqtf2)
/opt/pulp-riscv-gcc/bin/../lib/gcc/riscv32-unknown-elf/7.1.1/libgcc.a(getf2.o)
                              /opt/pulp-riscv-gcc/bin/../lib/gcc/riscv32-unknown-elf/7.1.1/../../../../riscv32-unknown-elf/lib/libc.a(lib_a-svfprintf.o) (__gttf2)
/opt/pulp-riscv-gcc/bin/../lib/gcc/riscv32-unknown-elf/7.1.1/libgcc.a(letf2.o)
                              /opt/pulp-riscv-gcc/bin/../lib/gcc/riscv32-unknown-elf/7.1.1/../../../../riscv32-unknown-elf/lib/libc.a(lib_a-svfprintf.o) (__lttf2)
/opt/pulp-riscv-gcc/bin/../lib/gcc/riscv32-unknown-elf/7.1.1/libgcc.a(multf3.o)
                              /opt/pulp-riscv-gcc/bin/../lib/gcc/riscv32-unknown-elf/7.1.1/../../../../riscv32-unknown-elf/lib/libc.a(lib_a-svfprintf.o) (__multf3)
/opt/pulp-riscv-gcc/bin/../lib/gcc/riscv32-unknown-elf/7.1.1/libgcc.a(subtf3.o)
                              /opt/pulp-riscv-gcc/bin/../lib/gcc/riscv32-unknown-elf/7.1.1/../../../../riscv32-unknown-elf/lib/libc.a(lib_a-svfprintf.o) (__subtf3)
/opt/pulp-riscv-gcc/bin/../lib/gcc/riscv32-unknown-elf/7.1.1/libgcc.a(fixtfsi.o)
                              /opt/pulp-riscv-gcc/bin/../lib/gcc/riscv32-unknown-elf/7.1.1/../../../../riscv32-unknown-elf/lib/libc.a(lib_a-svfprintf.o) (__fixtfsi)
/opt/pulp-riscv-gcc/bin/../lib/gcc/riscv32-unknown-elf/7.1.1/libgcc.a(floatsitf.o)
                              /opt/pulp-riscv-gcc/bin/../lib/gcc/riscv32-unknown-elf/7.1.1/../../../../riscv32-unknown-elf/lib/libc.a(lib_a-svfprintf.o) (__floatsitf)
/opt/pulp-riscv-gcc/bin/../lib/gcc/riscv32-unknown-elf/7.1.1/libgcc.a(extenddftf2.o)
                              /opt/pulp-riscv-gcc/bin/../lib/gcc/riscv32-unknown-elf/7.1.1/../../../../riscv32-unknown-elf/lib/libc.a(lib_a-svfprintf.o) (__extenddftf2)
/opt/pulp-riscv-gcc/bin/../lib/gcc/riscv32-unknown-elf/7.1.1/libgcc.a(trunctfdf2.o)
                              /opt/pulp-riscv-gcc/bin/../lib/gcc/riscv32-unknown-elf/7.1.1/../../../../riscv32-unknown-elf/lib/libc.a(lib_a-svfprintf.o) (__trunctfdf2)
/opt/pulp-riscv-gcc/bin/../lib/gcc/riscv32-unknown-elf/7.1.1/libgcc.a(muldi3.o)
                              crt/src/runtime/crt/common/crt_runtime_api.o (__mulsi3)
/opt/pulp-riscv-gcc/bin/../lib/gcc/riscv32-unknown-elf/7.1.1/libgcc.a(multi3.o)
                              crt/src/runtime/crt/common/crt_runtime_api.o (__muldi3)
/opt/pulp-riscv-gcc/bin/../lib/gcc/riscv32-unknown-elf/7.1.1/libgcc.a(div.o)
                              main.o (__udivsi3)
/opt/pulp-riscv-gcc/bin/../lib/gcc/riscv32-unknown-elf/7.1.1/libgcc.a(_clz.o)
                              /opt/pulp-riscv-gcc/bin/../lib/gcc/riscv32-unknown-elf/7.1.1/libgcc.a(_divdi3.o) (__clz_tab)
/opt/pulp-riscv-gcc/bin/../lib/gcc/riscv32-unknown-elf/7.1.1/libgcc.a(_clzsi2.o)
                              /opt/pulp-riscv-gcc/bin/../lib/gcc/riscv32-unknown-elf/7.1.1/libgcc.a(adddf3.o) (__clzsi2)

Allocating common symbols
Common symbol       size              file

serial_buffer_data  0x10              main.o
g_fexecs            0x4               crt/src/runtime/crt/common/packed_func.o
errno               0x4               /opt/pulp-riscv-gcc/bin/../lib/gcc/riscv32-unknown-elf/7.1.1/../../../../riscv32-unknown-elf/lib/libc.a(lib_a-reent.o)
g_fexecs_count      0x4               crt/src/runtime/crt/common/packed_func.o

Discarded input sections

 .group         0x0000000000000000        0x8 crt/src/runtime/crt/microtvm_rpc_common/framing.o
 .group         0x0000000000000000        0xc crt/src/runtime/crt/microtvm_rpc_common/session.o
 .group         0x0000000000000000        0x8 crt/src/runtime/crt/microtvm_rpc_common/session.o
 .group         0x0000000000000000        0x8 crt/src/runtime/crt/microtvm_rpc_common/session.o
 .group         0x0000000000000000        0x8 crt/src/runtime/crt/microtvm_rpc_common/session.o
 .group         0x0000000000000000        0x8 crt/src/runtime/crt/microtvm_rpc_common/session.o
 .group         0x0000000000000000        0x8 crt/src/runtime/crt/microtvm_rpc_common/session.o
 .group         0x0000000000000000        0x8 crt/src/runtime/crt/microtvm_rpc_common/write_stream.o
 .group         0x0000000000000000        0x8 crt/src/runtime/crt/microtvm_rpc_server/rpc_server.o
 .group         0x0000000000000000        0x8 crt/src/runtime/crt/microtvm_rpc_server/rpc_server.o
 .group         0x0000000000000000        0x8 crt/src/runtime/crt/microtvm_rpc_server/rpc_server.o
 .group         0x0000000000000000        0x8 crt/src/runtime/crt/microtvm_rpc_server/rpc_server.o
 .group         0x0000000000000000        0x8 crt/src/runtime/crt/microtvm_rpc_server/rpc_server.o
 .group         0x0000000000000000        0x8 crt/src/runtime/crt/microtvm_rpc_server/rpc_server.o
 .group         0x0000000000000000        0x8 crt/src/runtime/crt/microtvm_rpc_server/rpc_server.o
 .group         0x0000000000000000        0xc crt/src/runtime/crt/microtvm_rpc_server/rpc_server.o
 .group         0x0000000000000000        0x8 crt/src/runtime/crt/microtvm_rpc_server/rpc_server.o
 .group         0x0000000000000000        0x8 crt/src/runtime/crt/microtvm_rpc_server/rpc_server.o
 .group         0x0000000000000000        0x8 crt/src/runtime/crt/microtvm_rpc_server/rpc_server.o
 .group         0x0000000000000000        0x8 crt/src/runtime/crt/microtvm_rpc_server/rpc_server.o
 .group         0x0000000000000000        0x8 crt/src/runtime/crt/microtvm_rpc_server/rpc_server.o
 .group         0x0000000000000000        0x8 crt/src/runtime/crt/microtvm_rpc_server/rpc_server.o
 .group         0x0000000000000000        0x8 crt/src/runtime/crt/microtvm_rpc_server/rpc_server.o
 .group         0x0000000000000000        0x8 crt/src/runtime/crt/microtvm_rpc_server/rpc_server.o
 .group         0x0000000000000000        0x8 crt/src/runtime/crt/microtvm_rpc_server/rpc_server.o
 .group         0x0000000000000000        0x8 crt/src/runtime/crt/microtvm_rpc_server/rpc_server.o
 .group         0x0000000000000000        0xc crt/src/runtime/crt/microtvm_rpc_server/rpc_server.o
 .group         0x0000000000000000        0x8 crt/src/runtime/crt/microtvm_rpc_server/rpc_server.o
 .group         0x0000000000000000        0x8 crt/src/runtime/crt/microtvm_rpc_server/rpc_server.o
 .group         0x0000000000000000        0x8 crt/src/runtime/crt/microtvm_rpc_server/rpc_server.o
 .group         0x0000000000000000        0x8 crt/src/runtime/crt/microtvm_rpc_server/rpc_server.o
 .group         0x0000000000000000        0x8 crt/src/runtime/crt/microtvm_rpc_server/rpc_server.o
 .group         0x0000000000000000        0x8 crt/src/runtime/crt/microtvm_rpc_server/rpc_server.o
 .group         0x0000000000000000        0x8 crt/src/runtime/crt/microtvm_rpc_server/rpc_server.o
 .group         0x0000000000000000        0x8 crt/src/runtime/crt/microtvm_rpc_server/rpc_server.o
 .group         0x0000000000000000        0x8 crt/src/runtime/crt/microtvm_rpc_server/rpc_server.o
 .group         0x0000000000000000        0x8 crt/src/runtime/crt/microtvm_rpc_server/rpc_server.o
 .group         0x0000000000000000        0x8 crt/src/runtime/crt/microtvm_rpc_server/rpc_server.o
 .group         0x0000000000000000        0x8 crt/src/runtime/crt/microtvm_rpc_server/rpc_server.o
 .group         0x0000000000000000        0xc crt/src/runtime/crt/microtvm_rpc_server/rpc_server.o
 .group         0x0000000000000000        0x8 crt/src/runtime/crt/microtvm_rpc_server/rpc_server.o
 .group         0x0000000000000000        0x8 crt/src/runtime/crt/microtvm_rpc_server/rpc_server.o
 .group         0x0000000000000000        0x8 crt/src/runtime/crt/microtvm_rpc_server/rpc_server.o
 .group         0x0000000000000000        0x8 crt/src/runtime/crt/microtvm_rpc_server/rpc_server.o
 .group         0x0000000000000000        0x8 crt/src/runtime/crt/microtvm_rpc_server/rpc_server.o
 .group         0x0000000000000000        0x8 crt/src/runtime/crt/microtvm_rpc_server/rpc_server.o
 .group         0x0000000000000000        0xc crt/src/runtime/crt/microtvm_rpc_server/rpc_server.o
 .group         0x0000000000000000        0x8 crt/src/runtime/crt/microtvm_rpc_server/rpc_server.o
 .group         0x0000000000000000        0x8 crt/src/runtime/crt/microtvm_rpc_server/rpc_server.o
 .group         0x0000000000000000        0x8 crt/src/runtime/crt/microtvm_rpc_server/rpc_server.o
 .group         0x0000000000000000        0x8 crt/src/runtime/crt/microtvm_rpc_server/rpc_server.o
 .group         0x0000000000000000        0x8 crt/src/runtime/crt/microtvm_rpc_server/rpc_server.o
 .group         0x0000000000000000        0x8 crt/src/runtime/crt/microtvm_rpc_server/rpc_server.o
 .group         0x0000000000000000        0x8 crt/src/runtime/crt/microtvm_rpc_server/rpc_server.o
 .group         0x0000000000000000        0x8 crt/src/runtime/crt/microtvm_rpc_server/rpc_server.o
 .group         0x0000000000000000        0x8 crt/src/runtime/crt/microtvm_rpc_server/rpc_server.o
 .group         0x0000000000000000        0x8 crt/src/runtime/crt/microtvm_rpc_server/rpc_server.o
 .group         0x0000000000000000        0x8 crt/src/runtime/crt/microtvm_rpc_server/rpc_server.o
 .group         0x0000000000000000        0x8 crt/src/runtime/crt/microtvm_rpc_server/rpc_server.o
 .group         0x0000000000000000        0x8 crt/src/runtime/crt/microtvm_rpc_server/rpc_server.o
 .group         0x0000000000000000        0x8 crt/src/runtime/crt/microtvm_rpc_server/rpc_server.o
 .group         0x0000000000000000        0x8 crt/src/runtime/crt/microtvm_rpc_server/rpc_server.o
 .group         0x0000000000000000        0x8 crt/src/runtime/crt/microtvm_rpc_server/rpc_server.o
 .group         0x0000000000000000        0x8 crt/src/runtime/crt/microtvm_rpc_server/rpc_server.o
 .group         0x0000000000000000        0x8 crt/src/runtime/crt/microtvm_rpc_server/rpc_server.o
 .group         0x0000000000000000        0x8 crt/src/runtime/crt/microtvm_rpc_server/rpc_server.o
 .group         0x0000000000000000        0x8 crt/src/runtime/crt/microtvm_rpc_server/rpc_server.o
 .group         0x0000000000000000        0x8 crt/src/runtime/crt/microtvm_rpc_server/rpc_server.o
 .group         0x0000000000000000        0x8 crt/src/runtime/crt/microtvm_rpc_server/rpc_server.o
 .group         0x0000000000000000        0x8 crt/src/runtime/crt/microtvm_rpc_server/rpc_server.o
 .group         0x0000000000000000        0x8 crt/src/runtime/crt/microtvm_rpc_server/rpc_server.o
 .group         0x0000000000000000        0x8 crt/src/runtime/crt/microtvm_rpc_server/rpc_server.o
 .group         0x0000000000000000        0x8 crt/src/runtime/crt/microtvm_rpc_server/rpc_server.o
 .group         0x0000000000000000        0x8 crt/src/runtime/crt/microtvm_rpc_server/rpc_server.o
 .group         0x0000000000000000        0x8 crt/src/runtime/crt/microtvm_rpc_server/rpc_server.o
 .group         0x0000000000000000        0x8 crt/src/runtime/crt/microtvm_rpc_server/rpc_server.o
 .group         0x0000000000000000        0x8 crt/src/runtime/crt/microtvm_rpc_server/rpc_server.o
 .group         0x0000000000000000        0x8 crt/src/runtime/crt/microtvm_rpc_server/rpc_server.o
 .group         0x0000000000000000        0x8 crt/src/runtime/crt/microtvm_rpc_server/rpc_server.o
 .group         0x0000000000000000        0x8 crt/src/runtime/crt/microtvm_rpc_server/rpc_server.o
 .group         0x0000000000000000        0x8 crt/src/runtime/crt/microtvm_rpc_server/rpc_server.o
 .group         0x0000000000000000        0x8 crt/src/runtime/crt/microtvm_rpc_server/rpc_server.o
 .group         0x0000000000000000        0x8 crt/src/runtime/crt/microtvm_rpc_server/rpc_server.o
 .group         0x0000000000000000        0x8 crt/src/runtime/crt/microtvm_rpc_server/rpc_server.o
 .group         0x0000000000000000        0x8 crt/src/runtime/crt/microtvm_rpc_server/rpc_server.o
 .group         0x0000000000000000        0xc crt/src/runtime/crt/microtvm_rpc_server/rpc_server.o
 .group         0x0000000000000000        0x8 crt/src/runtime/crt/microtvm_rpc_server/rpc_server.o
 .group         0x0000000000000000        0x8 crt/src/runtime/crt/microtvm_rpc_server/rpc_server.o
 .group         0x0000000000000000        0x8 crt/src/runtime/crt/microtvm_rpc_server/rpc_server.o
 .group         0x0000000000000000        0x8 crt/src/runtime/crt/microtvm_rpc_server/rpc_server.o
 .group         0x0000000000000000        0x8 crt/src/runtime/crt/microtvm_rpc_server/rpc_server.o
 .group         0x0000000000000000        0x8 crt/src/runtime/crt/microtvm_rpc_server/rpc_server.o
 .group         0x0000000000000000        0x8 crt/src/runtime/crt/microtvm_rpc_server/rpc_server.o
 .group         0x0000000000000000        0x8 crt/src/runtime/crt/microtvm_rpc_server/rpc_server.o
 .group         0x0000000000000000        0x8 crt/src/runtime/crt/microtvm_rpc_server/rpc_server.o
 .group         0x0000000000000000        0x8 crt/src/runtime/crt/microtvm_rpc_server/rpc_server.o
 .group         0x0000000000000000        0x8 crt/src/runtime/crt/microtvm_rpc_server/rpc_server.o
 .group         0x0000000000000000        0x8 crt/src/runtime/crt/microtvm_rpc_server/rpc_server.o
 .group         0x0000000000000000        0x8 crt/src/runtime/crt/microtvm_rpc_server/rpc_server.o
 .group         0x0000000000000000        0x8 crt/src/runtime/crt/microtvm_rpc_server/rpc_server.o
 .group         0x0000000000000000        0x8 crt/src/runtime/crt/microtvm_rpc_server/rpc_server.o
 .group         0x0000000000000000        0x8 crt/src/runtime/crt/microtvm_rpc_server/rpc_server.o
 .group         0x0000000000000000        0x8 crt/src/runtime/crt/microtvm_rpc_server/rpc_server.o
 .group         0x0000000000000000        0x8 crt/src/runtime/crt/microtvm_rpc_server/rpc_server.o
 .group         0x0000000000000000        0x8 crt/src/runtime/crt/microtvm_rpc_server/rpc_server.o
 .group         0x0000000000000000        0x8 crt/src/runtime/crt/microtvm_rpc_server/rpc_server.o
 .group         0x0000000000000000        0xc crt/src/runtime/crt/microtvm_rpc_server/rpc_server.o
 .group         0x0000000000000000        0x8 crt/src/runtime/crt/microtvm_rpc_server/rpc_server.o
 .group         0x0000000000000000        0x8 crt/src/runtime/crt/microtvm_rpc_server/rpc_server.o
 .group         0x0000000000000000        0x8 crt/src/runtime/crt/microtvm_rpc_server/rpc_server.o
 .group         0x0000000000000000        0x8 crt/src/runtime/crt/microtvm_rpc_server/rpc_server.o
 .group         0x0000000000000000        0x8 crt/src/runtime/crt/microtvm_rpc_server/rpc_server.o
 .group         0x0000000000000000        0xc crt/src/runtime/crt/microtvm_rpc_server/rpc_server.o
 .group         0x0000000000000000        0x8 crt/src/runtime/crt/microtvm_rpc_server/rpc_server.o
 .group         0x0000000000000000        0x8 crt/src/runtime/crt/microtvm_rpc_server/rpc_server.o
 .group         0x0000000000000000        0x8 crt/src/runtime/crt/microtvm_rpc_server/rpc_server.o
 .group         0x0000000000000000        0x8 crt/src/runtime/crt/microtvm_rpc_server/rpc_server.o
 .group         0x0000000000000000        0x8 crt/src/runtime/crt/microtvm_rpc_server/rpc_server.o
 .group         0x0000000000000000        0x8 crt/src/runtime/crt/microtvm_rpc_server/rpc_server.o
 .group         0x0000000000000000        0x8 crt/src/runtime/crt/microtvm_rpc_server/rpc_server.o
 .group         0x0000000000000000        0x8 crt/src/runtime/crt/microtvm_rpc_server/rpc_server.o
 .group         0x0000000000000000        0x8 crt/src/runtime/crt/microtvm_rpc_server/rpc_server.o
 .group         0x0000000000000000        0x8 crt/src/runtime/crt/microtvm_rpc_server/rpc_server.o
 .group         0x0000000000000000        0x8 crt/src/runtime/crt/microtvm_rpc_server/rpc_server.o
 .group         0x0000000000000000        0x8 crt/src/runtime/crt/microtvm_rpc_server/rpc_server.o
 .group         0x0000000000000000        0x8 crt/src/runtime/crt/microtvm_rpc_server/rpc_server.o
 .group         0x0000000000000000        0x8 crt/src/runtime/crt/microtvm_rpc_server/rpc_server.o
 .group         0x0000000000000000        0x8 crt/src/runtime/crt/microtvm_rpc_server/rpc_server.o
 .group         0x0000000000000000        0x8 crt/src/runtime/crt/microtvm_rpc_server/rpc_server.o
 .group         0x0000000000000000        0x8 crt/src/runtime/crt/microtvm_rpc_server/rpc_server.o
 .group         0x0000000000000000        0x8 crt/src/runtime/crt/microtvm_rpc_server/rpc_server.o
 .group         0x0000000000000000        0x8 crt/src/runtime/crt/microtvm_rpc_server/rpc_server.o
 .group         0x0000000000000000        0x8 crt/src/runtime/crt/microtvm_rpc_server/rpc_server.o
 .group         0x0000000000000000        0x8 crt/src/runtime/crt/microtvm_rpc_server/rpc_server.o
 .text._ZN3tvm7runtime9micro_rpc7Session15SessionReceiverD2Ev
                0x0000000000000000       0x48 crt/src/runtime/crt/microtvm_rpc_server/rpc_server.o
 .text._ZN3tvm7runtime9micro_rpc7Session15SessionReceiverD0Ev
                0x0000000000000000       0x3c crt/src/runtime/crt/microtvm_rpc_server/rpc_server.o
 .text._ZN3tvm7runtime9micro_rpc7Session15SessionReceiverdlEPv
                0x0000000000000000       0x20 crt/src/runtime/crt/microtvm_rpc_server/rpc_server.o

Memory Configuration

Name             Origin             Length             Attributes
flash            0x0000000020400000 0x0000000020000000 axrl !w
ram              0x0000000080000000 0x0000000001000000 axw !rl
*default*        0x0000000000000000 0xffffffffffffffff

Linker script and memory map

LOAD /local/gerum/speech_recognition/external/hannah-tvm/tmp/TGC-VP/fw/bsp/env/start.o
LOAD /local/gerum/speech_recognition/external/hannah-tvm/tmp/TGC-VP/fw/bsp/env/entry.o
LOAD circular_buffer.o
LOAD cxx_support.o
LOAD main.o
LOAD crt/src/runtime/crt/common/crt_backend_api.o
LOAD crt/src/runtime/crt/common/crt_runtime_api.o
LOAD crt/src/runtime/crt/common/func_registry.o
LOAD crt/src/runtime/crt/common/ndarray.o
LOAD crt/src/runtime/crt/common/packed_func.o
LOAD crt/src/runtime/crt/graph_executor/graph_executor.o
LOAD crt/src/runtime/crt/graph_executor/load_json.o
LOAD crt/src/runtime/crt/graph_executor_module/graph_executor_module.o
LOAD crt/src/runtime/crt/memory/page_allocator.o
LOAD crt/src/runtime/crt/memory/stack_allocator.o
LOAD crt/src/runtime/crt/microtvm_rpc_common/crcccitt.o
LOAD /local/gerum/speech_recognition/external/hannah-tvm/tmp/TGC-VP/fw/bsp/env/tgfs-vp/init.o
LOAD delete.o
LOAD crt/src/runtime/crt/microtvm_rpc_common/frame_buffer.o
LOAD crt/src/runtime/crt/microtvm_rpc_common/framing.o
LOAD crt/src/runtime/crt/microtvm_rpc_common/session.o
LOAD crt/src/runtime/crt/microtvm_rpc_common/write_stream.o
LOAD crt/src/runtime/crt/microtvm_rpc_server/rpc_server.o
START GROUP
LOAD ./libwrap.a
LOAD /opt/pulp-riscv-gcc/bin/../lib/gcc/riscv32-unknown-elf/7.1.1/../../../../riscv32-unknown-elf/lib/libc.a
END GROUP
LOAD libwrap.a
LOAD /opt/pulp-riscv-gcc/bin/../lib/gcc/riscv32-unknown-elf/7.1.1/libgcc.a
START GROUP
LOAD /opt/pulp-riscv-gcc/bin/../lib/gcc/riscv32-unknown-elf/7.1.1/../../../../riscv32-unknown-elf/lib/libc.a
LOAD /opt/pulp-riscv-gcc/bin/../lib/gcc/riscv32-unknown-elf/7.1.1/../../../../riscv32-unknown-elf/lib/libgloss.a
END GROUP
LOAD /opt/pulp-riscv-gcc/bin/../lib/gcc/riscv32-unknown-elf/7.1.1/libgcc.a
START GROUP
LOAD /opt/pulp-riscv-gcc/bin/../lib/gcc/riscv32-unknown-elf/7.1.1/libgcc.a
LOAD /opt/pulp-riscv-gcc/bin/../lib/gcc/riscv32-unknown-elf/7.1.1/../../../../riscv32-unknown-elf/lib/libc.a
LOAD /opt/pulp-riscv-gcc/bin/../lib/gcc/riscv32-unknown-elf/7.1.1/../../../../riscv32-unknown-elf/lib/libnosys.a
END GROUP
                0x0000000000004000                __stack_size = DEFINED (__stack_size)?__stack_size:0x4000

.init           0x0000000020400000       0x9c
 *(SORT(.init))
 .init          0x0000000020400000       0x9c /local/gerum/speech_recognition/external/hannah-tvm/tmp/TGC-VP/fw/bsp/env/start.o
                0x0000000020400000                _start

.text           0x000000002040009c    0x1fcc2
 *(.text.unlikely .text.unlikely.*)
 *(.text.startup .text.startup.*)
 *(.text .text.*)
 .text          0x000000002040009c        0x0 /local/gerum/speech_recognition/external/hannah-tvm/tmp/TGC-VP/fw/bsp/env/start.o
 .text          0x000000002040009c        0x0 /local/gerum/speech_recognition/external/hannah-tvm/tmp/TGC-VP/fw/bsp/env/entry.o
 .text.entry    0x000000002040009c      0x128 /local/gerum/speech_recognition/external/hannah-tvm/tmp/TGC-VP/fw/bsp/env/entry.o
                0x000000002040009c                trap_entry
 .text          0x00000000204001c4      0x7f0 circular_buffer.o
                0x00000000204002dc                circular_buf_init
                0x00000000204003c4                circular_buf_free
                0x000000002040041c                circular_buf_reset
                0x0000000020400484                circular_buf_size
                0x0000000020400550                circular_buf_capacity
                0x00000000204005a8                circular_buf_put
                0x0000000020400630                circular_buf_try_put
                0x00000000204006e0                circular_buf_get
                0x00000000204007c0                circular_buf_empty
                0x0000000020400850                circular_buf_full
                0x00000000204008a8                circular_buf_peek
 .text          0x00000000204009b4       0x10 cxx_support.o
                0x00000000204009b4                __cxa_pure_virtual
 .text          0x00000000204009c4      0x53c main.o
                0x0000000020400bb0                write_serial
                0x0000000020400c30                TVMPlatformFormatMessage
                0x0000000020400c7c                TVMPlatformAbort
                0x0000000020400ca8                TVMPlatformGenerateRandom
                0x0000000020400d20                TVMPlatformMemoryAllocate
                0x0000000020400d84                TVMPlatformMemoryFree
                0x0000000020400dc0                TVMPlatformTimerStart
                0x0000000020400de0                TVMPlatformTimerStop
                0x0000000020400e04                uart_irq_cb
                0x0000000020400e28                TVMSystemLibEntryPoint
                0x0000000020400e48                main
 .text          0x0000000020400f00      0x200 crt/src/runtime/crt/common/crt_backend_api.o
                0x0000000020400f00                TVMBackendAllocWorkspace
                0x0000000020401010                TVMBackendFreeWorkspace
                0x000000002040106c                TVMBackendParallelLaunch
                0x00000000204010c0                TVMBackendRegisterSystemLibSymbol
 .text          0x0000000020401100     0x194c crt/src/runtime/crt/common/crt_runtime_api.o
                0x0000000020401100                TVMAPISetLastError
                0x0000000020401148                TVMAPIErrorf
                0x00000000204011bc                TVMGetLastError
                0x00000000204011e0                TVMArrayAlloc
                0x00000000204012b4                TVMArrayFree
                0x000000002040130c                TVMDeviceAllocDataSpace
                0x00000000204013a0                TVMDeviceAllocDataSpaceWithScope
                0x00000000204014dc                TVMDeviceFreeDataSpace
                0x000000002040161c                TVMDeviceCopyDataFromTo
                0x0000000020401778                TVMStreamCreate
                0x00000000204017a8                TVMStreamFree
                0x00000000204017d4                TVMSetStream
                0x0000000020401800                TVMSynchronize
                0x000000002040182c                TVMFuncRegisterGlobal
                0x000000002040195c                TVMModCreateFromCModule
                0x0000000020401a04                TVMModFree
                0x0000000020401a98                SystemLibraryCreate
                0x0000000020401ca0                TVMByteArrayFree
                0x0000000020401d18                TVMFuncCall
                0x0000000020401f08                TVMFuncGetGlobal
                0x0000000020401f70                TVMModGetFunction
                0x0000000020401ff8                ModuleGetFunction
                0x0000000020402118                TVMCFuncSetReturn
                0x00000000204021d0                TVMFuncFree
                0x00000000204021f4                RPCGetCRTMaxPacketSize
                0x0000000020402248                TVMInitializeRuntime
                0x00000000204023f8                RPCTimeEvaluator
                0x0000000020402650                RunTimeEvaluator
                0x00000000204029a4                TVMContribRandomFill
 .text          0x0000000020402a4c      0x410 crt/src/runtime/crt/common/func_registry.o
                0x0000000020402a4c                strcmp_cursor
                0x0000000020402b08                TVMFuncRegistry_Lookup
                0x0000000020402ba4                TVMFuncRegistry_GetByIndex
                0x0000000020402c20                TVMMutableFuncRegistry_Create
                0x0000000020402ccc                TVMMutableFuncRegistry_Set
 .text          0x0000000020402e5c      0x94c crt/src/runtime/crt/common/ndarray.o
                0x0000000020402e5c                TVMNDArray_Create
                0x0000000020402f44                TVMNDArray_DataSizeBytes
                0x00000000204030c8                TVMNDArray_Empty
                0x00000000204031b4                TVMNDArray_Load
                0x0000000020403618                TVMNDArray_CreateView
                0x0000000020403698                TVMNDArray_RandomFill
                0x0000000020403708                TVMNDArray_Release
 .text          0x00000000204037a8      0x588 crt/src/runtime/crt/common/packed_func.o
                0x00000000204037a8                String2DLDataType
                0x0000000020403a24                TVMPackedFunc_InitGlobalFunc
                0x0000000020403acc                TVMPackedFunc_InitModuleFunc
                0x0000000020403b80                TVMArgs_Create
                0x0000000020403c70                TVMPackedFunc_Call
                0x0000000020403cec                TVMPackedFunc_SetArgs
 .text          0x0000000020403d30     0x46e8 crt/src/runtime/crt/graph_executor/graph_executor.o
                0x0000000020403d30                Shape_Accumulate
                0x0000000020403df8                NodeEntry_Load
                0x0000000020403f88                TVMGraphExecutorNode_LoadAttrs
                0x00000000204041e0                TVMGraphExecutorNode_Load
                0x000000002040476c                TVMGraphExecutorNodeCreate
                0x00000000204047e0                TVMGraphExecutorNodeRelease
                0x0000000020404868                TVMGraphExecutorGraphAttr_Load
                0x00000000204059d8                TVMGraphExecutorGraphAttr_Release
                0x0000000020405b90                TVMGraphExecutor_Load
                0x0000000020406440                TVMGraphExecutor_GetEntryId
                0x0000000020406488                TVMGraphExecutor_GetNumInputs
                0x00000000204064b0                TVMGraphExecutor_GetInputIndex
                0x00000000204065ac                TVMGraphExecutor_SetInput
                0x0000000020406680                TVMGraphExecutor_LoadParams
                0x0000000020406c90                TVMGraphExecutor_Run
                0x0000000020406d54                TVMGraphExecutor_GetNumOutputs
                0x0000000020406d7c                TVMGraphExecutor_GetOutput
                0x0000000020406f74                TVMGraphExecutor_SetupStorage
                0x00000000204078f4                TVMGraphExecutor_SetupOpExecs
                0x0000000020407c60                TVMGraphExecutor_CreateTVMOp
                0x0000000020407edc                TVMGraphExecutor_Init
                0x0000000020407fb4                TVMGraphExecutor_Create
                0x0000000020408078                TVMGraphExecutor_Release
 .text          0x0000000020408418     0x1418 crt/src/runtime/crt/graph_executor/load_json.o
                0x0000000020408418                JSONNodeEntryLoad
                0x0000000020408588                SeqPush
                0x0000000020408634                SeqBack
                0x00000000204086cc                SeqPop
                0x000000002040876c                SeqCreate
                0x0000000020408878                SeqRelease
                0x00000000204088ec                JSONReader_NextChar
                0x0000000020408934                JSONReader_PeekNextChar
                0x0000000020408960                JSONReader_NextNonSpace
                0x0000000020408a08                JSONReader_PeekNextNonSpace
                0x0000000020408ac8                JSONReader_ReadString
                0x0000000020408d4c                JSONReader_ReadUnsignedInteger
                0x0000000020408dd8                JSONReader_ReadInteger
                0x0000000020408e74                JSONReader_BeginObject
                0x0000000020408f10                JSONReader_NextObjectItem
                0x0000000020409114                JSONReader_BeginArray
                0x00000000204091b0                JSONReader_NextArrayItem
                0x0000000020409304                JSONReader_ArrayLength
                0x00000000204095d8                JSONReader_Create
                0x00000000204097bc                JSONReader_Release
 .text          0x0000000020409830      0x7fc crt/src/runtime/crt/graph_executor_module/graph_executor_module.o
                0x0000000020409830                TVMGraphExecutorModule_Create
                0x00000000204099f8                TVMGraphExecutorModule_GetInput
                0x0000000020409b20                TVMGraphExecutorModule_GetNumInputs
                0x0000000020409bac                TVMGraphExecutorModule_GetNumOutputs
                0x0000000020409c48                TVMGraphExecutorModule_GetOutput
                0x0000000020409da0                TVMGraphExecutorModule_LoadParams
                0x0000000020409e58                TVMGraphExecutorModule_Run
                0x0000000020409ecc                TVMGraphExecutorModule_SetInput
                0x0000000020409f90                TVMGraphExecutorModule_NotImplemented
                0x0000000020409fcc                TVMGraphExecutorModule_Register
 .text          0x000000002040a02c     0x1100 crt/src/runtime/crt/memory/page_allocator.o
                0x000000002040a02c                PageCreate
                0x000000002040a0e4                PageTable_Resize
                0x000000002040a1ec                TLB_Set
                0x000000002040a304                TLB_Find
                0x000000002040a390                MultiMap_LowerBound
                0x000000002040a444                MultiMap_End
                0x000000002040a46c                MultiMap_Erase
                0x000000002040a588                MultiMap_Insert
                0x000000002040a6c0                PageMemoryManager_Allocate
                0x000000002040a8e8                PageMemoryManager_Realloc
                0x000000002040add0                PageMemoryManager_Free
                0x000000002040aef8                PageMemoryManagerCreate
 .text          0x000000002040b12c      0x2cc crt/src/runtime/crt/memory/stack_allocator.o
                0x000000002040b12c                StackMemoryManager_Allocate_Body
                0x000000002040b240                StackMemoryManager_Allocate
                0x000000002040b290                StackMemoryManager_Free_Body
                0x000000002040b324                StackMemoryManager_Free
                0x000000002040b36c                StackMemoryManager_Init
 .text          0x000000002040b3f8      0x228 crt/src/runtime/crt/microtvm_rpc_common/crcccitt.o
                0x000000002040b3f8                crc_xmodem
                0x000000002040b438                crc_ccitt_1d0f
                0x000000002040b47c                crc_ccitt_ffff
                0x000000002040b590                update_crc_ccitt
 .text          0x000000002040b620      0x628 /local/gerum/speech_recognition/external/hannah-tvm/tmp/TGC-VP/fw/bsp/env/tgfs-vp/init.o
                0x000000002040b648                get_timer_value
                0x000000002040b698                get_timer_freq
                0x000000002040ba4c                get_cpu_freq
                0x000000002040bb60                handle_trap
                0x000000002040bb9c                _init
                0x000000002040bc2c                _fini
 .text          0x000000002040bc48       0x24 delete.o
                0x000000002040bc48                operator delete(void*, unsigned int)
 .text          0x000000002040bc6c      0x178 crt/src/runtime/crt/microtvm_rpc_common/frame_buffer.o
                0x000000002040bc6c                tvm::runtime::micro_rpc::FrameBuffer::Write(unsigned char const*, unsigned int)
                0x000000002040bd10                tvm::runtime::micro_rpc::FrameBuffer::Read(unsigned char*, unsigned int)
                0x000000002040bdb4                tvm::runtime::micro_rpc::FrameBuffer::Clear()
 .text          0x000000002040bde4     0x112c crt/src/runtime/crt/microtvm_rpc_common/framing.o
                0x000000002040bde4                tvm::runtime::micro_rpc::crc16_compute(unsigned char const*, unsigned int, unsigned short*)
                0x000000002040be80                tvm::runtime::micro_rpc::Unframer::Reset()
                0x000000002040beb8                tvm::runtime::micro_rpc::Unframer::BytesNeeded()
                0x000000002040bf88                tvm::runtime::micro_rpc::Unframer::Write(unsigned char const*, unsigned int, unsigned int*)
                0x000000002040c124                tvm::runtime::micro_rpc::Unframer::FindPacketStart()
                0x000000002040c2a8                tvm::runtime::micro_rpc::Unframer::ConsumeInput(unsigned char*, unsigned int, unsigned int*, bool)
                0x000000002040c52c                tvm::runtime::micro_rpc::Unframer::AddToBuffer(unsigned int, bool)
                0x000000002040c5bc                tvm::runtime::micro_rpc::Unframer::ClearBuffer()
                0x000000002040c5e4                tvm::runtime::micro_rpc::Unframer::FindPacketLength()
                0x000000002040c6ac                tvm::runtime::micro_rpc::Unframer::FindPacketCrc()
                0x000000002040c87c                tvm::runtime::micro_rpc::Unframer::FindCrcEnd()
                0x000000002040c948                tvm::runtime::micro_rpc::Framer::Reset()
                0x000000002040c970                tvm::runtime::micro_rpc::Framer::Write(unsigned char const*, unsigned int)
                0x000000002040c9f4                tvm::runtime::micro_rpc::Framer::StartPacket(unsigned int)
                0x000000002040cb70                tvm::runtime::micro_rpc::Framer::WriteAndCrc(unsigned char const*, unsigned int, bool, bool)
                0x000000002040cd50                tvm::runtime::micro_rpc::Framer::WritePayloadChunk(unsigned char const*, unsigned int)
                0x000000002040ce24                tvm::runtime::micro_rpc::Framer::FinishPacket()
 .text._ZN3tvm7runtime9micro_rpc8Unframer12IsBufferFullEj
                0x000000002040cf10       0x3c crt/src/runtime/crt/microtvm_rpc_common/framing.o
                0x000000002040cf10                tvm::runtime::micro_rpc::Unframer::IsBufferFull(unsigned int)
 .text          0x000000002040cf4c      0xbd4 crt/src/runtime/crt/microtvm_rpc_common/session.o
                0x000000002040cf4c                tvm::runtime::micro_rpc::Session::RegenerateNonce()
                0x000000002040cfd8                tvm::runtime::micro_rpc::Session::SendInternal(tvm::runtime::micro_rpc::MessageType, unsigned char const*, unsigned int)
                0x000000002040d078                tvm::runtime::micro_rpc::Session::StartMessage(tvm::runtime::micro_rpc::MessageType, unsigned int)
                0x000000002040d120                tvm::runtime::micro_rpc::Session::SendBodyChunk(unsigned char const*, unsigned int)
                0x000000002040d16c                tvm::runtime::micro_rpc::Session::FinishMessage()
                0x000000002040d1a8                tvm::runtime::micro_rpc::Session::StartSession()
                0x000000002040d268                tvm::runtime::micro_rpc::Session::Initialize(unsigned char)
                0x000000002040d2b0                tvm::runtime::micro_rpc::Session::TerminateSession()
                0x000000002040d30c                tvm::runtime::micro_rpc::Session::SendMessage(tvm::runtime::micro_rpc::MessageType, unsigned char const*, unsigned int)
                0x000000002040d384                tvm::runtime::micro_rpc::Session::SessionReceiver::Write(unsigned char const*, unsigned int)
                0x000000002040d404                tvm::runtime::micro_rpc::Session::SessionReceiver::PacketDone(bool)
                0x000000002040d61c                tvm::runtime::micro_rpc::Session::ClearReceiveBuffer()
                0x000000002040d65c                tvm::runtime::micro_rpc::Session::SendSessionStartReply(tvm::runtime::micro_rpc::SessionHeader const&)
                0x000000002040d734                tvm::runtime::micro_rpc::Session::ProcessStartSessionInit(tvm::runtime::micro_rpc::SessionHeader const&)
                0x000000002040d8a8                tvm::runtime::micro_rpc::Session::ProcessStartSessionReply(tvm::runtime::micro_rpc::SessionHeader const&)
                0x000000002040da90                tvm::runtime::micro_rpc::Session::OnSessionEstablishedMessage()
                0x000000002040dad8                tvm::runtime::micro_rpc::Session::OnSessionTerminatedMessage()
 .text._ZN3tvm7runtime9micro_rpc7Session15SessionReceiverD2Ev
                0x000000002040db20       0x44 crt/src/runtime/crt/microtvm_rpc_common/session.o
                0x000000002040db20                tvm::runtime::micro_rpc::Session::SessionReceiver::~SessionReceiver()
                0x000000002040db20                tvm::runtime::micro_rpc::Session::SessionReceiver::~SessionReceiver()
 .text._ZN3tvm7runtime9micro_rpc7Session15SessionReceiverD0Ev
                0x000000002040db64       0x34 crt/src/runtime/crt/microtvm_rpc_common/session.o
                0x000000002040db64                tvm::runtime::micro_rpc::Session::SessionReceiver::~SessionReceiver()
 .text._ZN3tvm7runtime9micro_rpc7Session15SessionReceiverdlEPv
                0x000000002040db98       0x20 crt/src/runtime/crt/microtvm_rpc_common/session.o
                0x000000002040db98                tvm::runtime::micro_rpc::Session::SessionReceiver::operator delete(void*)
 .text._ZN3tvm7runtime9micro_rpc7Session12SetSessionIdEhh
                0x000000002040dbb8       0x6c crt/src/runtime/crt/microtvm_rpc_common/session.o
                0x000000002040dbb8                tvm::runtime::micro_rpc::Session::SetSessionId(unsigned char, unsigned char)
 .text._ZN3tvm7runtime9micro_rpc7Session14InitiatorNonceEt
                0x000000002040dc24       0x30 crt/src/runtime/crt/microtvm_rpc_common/session.o
                0x000000002040dc24                tvm::runtime::micro_rpc::Session::InitiatorNonce(unsigned short)
 .text._ZN3tvm7runtime9micro_rpc7Session14ResponderNonceEt
                0x000000002040dc54       0x3c crt/src/runtime/crt/microtvm_rpc_common/session.o
                0x000000002040dc54                tvm::runtime::micro_rpc::Session::ResponderNonce(unsigned short)
 .text          0x000000002040dc90      0x14c crt/src/runtime/crt/microtvm_rpc_common/write_stream.o
                0x000000002040dc90                tvm::runtime::micro_rpc::WriteStream::~WriteStream()
                0x000000002040dc90                tvm::runtime::micro_rpc::WriteStream::~WriteStream()
                0x000000002040dcc0                tvm::runtime::micro_rpc::WriteStream::~WriteStream()
                0x000000002040dcf8                tvm::runtime::micro_rpc::WriteStream::WriteAll(unsigned char*, unsigned int, unsigned int*)
 .text          0x000000002040dddc      0x318 crt/src/runtime/crt/microtvm_rpc_server/rpc_server.o
                0x000000002040dddc                operator new[](unsigned int, void*)
                0x000000002040de04                MicroTVMRpcServerInit
                0x000000002040df3c                TVMLogf
                0x000000002040e0a8                MicroTVMRpcServerLoop
 .text._ZN3tvm7runtime9micro_rpc11FrameBufferC2EPhj
                0x000000002040e0f4       0x50 crt/src/runtime/crt/microtvm_rpc_server/rpc_server.o
                0x000000002040e0f4                tvm::runtime::micro_rpc::FrameBuffer::FrameBuffer(unsigned char*, unsigned int)
                0x000000002040e0f4                tvm::runtime::micro_rpc::FrameBuffer::FrameBuffer(unsigned char*, unsigned int)
 .text._ZN3tvm7runtime9micro_rpc8UnframerC2EPNS1_11WriteStreamE
                0x000000002040e144       0x48 crt/src/runtime/crt/microtvm_rpc_server/rpc_server.o
                0x000000002040e144                tvm::runtime::micro_rpc::Unframer::Unframer(tvm::runtime::micro_rpc::WriteStream*)
                0x000000002040e144                tvm::runtime::micro_rpc::Unframer::Unframer(tvm::runtime::micro_rpc::WriteStream*)
 .text._ZN3tvm7runtime9micro_rpc6FramerC2EPNS1_11WriteStreamE
                0x000000002040e18c       0x40 crt/src/runtime/crt/microtvm_rpc_server/rpc_server.o
                0x000000002040e18c                tvm::runtime::micro_rpc::Framer::Framer(tvm::runtime::micro_rpc::WriteStream*)
                0x000000002040e18c                tvm::runtime::micro_rpc::Framer::Framer(tvm::runtime::micro_rpc::WriteStream*)
 .text._ZN3tvm7runtime9micro_rpc7SessionC2EPNS1_6FramerEPNS1_11FrameBufferEPFvPvNS1_11MessageTypeES6_ES7_
                0x000000002040e1cc       0xb8 crt/src/runtime/crt/microtvm_rpc_server/rpc_server.o
                0x000000002040e1cc                tvm::runtime::micro_rpc::Session::Session(tvm::runtime::micro_rpc::Framer*, tvm::runtime::micro_rpc::FrameBuffer*, void (*)(void*, tvm::runtime::micro_rpc::MessageType, tvm::runtime::micro_rpc::FrameBuffer*), void*)
                0x000000002040e1cc                tvm::runtime::micro_rpc::Session::Session(tvm::runtime::micro_rpc::Framer*, tvm::runtime::micro_rpc::FrameBuffer*, void (*)(void*, tvm::runtime::micro_rpc::MessageType, tvm::runtime::micro_rpc::FrameBuffer*), void*)
 .text._ZN3tvm7runtime9micro_rpc7Session8ReceiverEv
                0x000000002040e284       0x28 crt/src/runtime/crt/microtvm_rpc_server/rpc_server.o
                0x000000002040e284                tvm::runtime::micro_rpc::Session::Receiver()
 .text._ZN3tvm7runtime9micro_rpc11WriteStreamC2Ev
                0x000000002040e2ac       0x30 crt/src/runtime/crt/microtvm_rpc_server/rpc_server.o
                0x000000002040e2ac                tvm::runtime::micro_rpc::WriteStream::WriteStream()
                0x000000002040e2ac                tvm::runtime::micro_rpc::WriteStream::WriteStream()
 .text._ZN3tvm7runtime9micro_rpc7Session15SessionReceiverC2EPS2_
                0x000000002040e2dc       0x54 crt/src/runtime/crt/microtvm_rpc_server/rpc_server.o
                0x000000002040e2dc                tvm::runtime::micro_rpc::Session::SessionReceiver::SessionReceiver(tvm::runtime::micro_rpc::Session*)
                0x000000002040e2dc                tvm::runtime::micro_rpc::Session::SessionReceiver::SessionReceiver(tvm::runtime::micro_rpc::Session*)
 .text._ZN3tvm7runtime12RPCReference9StrLengthEPKc
                0x000000002040e330       0x84 crt/src/runtime/crt/microtvm_rpc_server/rpc_server.o
                0x000000002040e330                tvm::runtime::RPCReference::StrLength(char const*)
 .text._ZN3tvm7runtime9micro_rpc14MicroIOHandlerC2EPNS1_7SessionEPNS1_11FrameBufferE
                0x000000002040e3b4       0x40 crt/src/runtime/crt/microtvm_rpc_server/rpc_server.o
                0x000000002040e3b4                tvm::runtime::micro_rpc::MicroIOHandler::MicroIOHandler(tvm::runtime::micro_rpc::Session*, tvm::runtime::micro_rpc::FrameBuffer*)
                0x000000002040e3b4                tvm::runtime::micro_rpc::MicroIOHandler::MicroIOHandler(tvm::runtime::micro_rpc::Session*, tvm::runtime::micro_rpc::FrameBuffer*)
 .text._ZN3tvm7runtime9micro_rpc14MicroIOHandler12MessageStartEj
                0x000000002040e3f4       0x4c crt/src/runtime/crt/microtvm_rpc_server/rpc_server.o
                0x000000002040e3f4                tvm::runtime::micro_rpc::MicroIOHandler::MessageStart(unsigned int)
 .text._ZN3tvm7runtime9micro_rpc14MicroIOHandler10PosixWriteEPKhj
                0x000000002040e440       0x64 crt/src/runtime/crt/microtvm_rpc_server/rpc_server.o
                0x000000002040e440                tvm::runtime::micro_rpc::MicroIOHandler::PosixWrite(unsigned char const*, unsigned int)
 .text._ZN3tvm7runtime9micro_rpc14MicroIOHandler11MessageDoneEv
                0x000000002040e4a4       0x78 crt/src/runtime/crt/microtvm_rpc_server/rpc_server.o
                0x000000002040e4a4                tvm::runtime::micro_rpc::MicroIOHandler::MessageDone()
 .text._ZN3tvm7runtime9micro_rpc14MicroIOHandler9PosixReadEPhj
                0x000000002040e51c       0x4c crt/src/runtime/crt/microtvm_rpc_server/rpc_server.o
                0x000000002040e51c                tvm::runtime::micro_rpc::MicroIOHandler::PosixRead(unsigned char*, unsigned int)
 .text._ZN3tvm7runtime9micro_rpc14MicroIOHandler5CloseEv
                0x000000002040e568       0x20 crt/src/runtime/crt/microtvm_rpc_server/rpc_server.o
                0x000000002040e568                tvm::runtime::micro_rpc::MicroIOHandler::Close()
 .text._ZN3tvm7runtime9micro_rpc14MicroIOHandler4ExitEi
                0x000000002040e588       0x18 crt/src/runtime/crt/microtvm_rpc_server/rpc_server.o
                0x000000002040e588                tvm::runtime::micro_rpc::MicroIOHandler::Exit(int)
 .text._ZN3tvm7runtime9micro_rpc17SerialWriteStreamC2Ev
                0x000000002040e5a0       0x44 crt/src/runtime/crt/microtvm_rpc_server/rpc_server.o
                0x000000002040e5a0                tvm::runtime::micro_rpc::SerialWriteStream::SerialWriteStream()
                0x000000002040e5a0                tvm::runtime::micro_rpc::SerialWriteStream::SerialWriteStream()
 .text._ZN3tvm7runtime9micro_rpc17SerialWriteStreamD2Ev
                0x000000002040e5e4       0x44 crt/src/runtime/crt/microtvm_rpc_server/rpc_server.o
                0x000000002040e5e4                tvm::runtime::micro_rpc::SerialWriteStream::~SerialWriteStream()
                0x000000002040e5e4                tvm::runtime::micro_rpc::SerialWriteStream::~SerialWriteStream()
 .text._ZN3tvm7runtime9micro_rpc17SerialWriteStreamD0Ev
                0x000000002040e628       0x34 crt/src/runtime/crt/microtvm_rpc_server/rpc_server.o
                0x000000002040e628                tvm::runtime::micro_rpc::SerialWriteStream::~SerialWriteStream()
 .text._ZN3tvm7runtime9micro_rpc17SerialWriteStream5WriteEPKhj
                0x000000002040e65c       0x5c crt/src/runtime/crt/microtvm_rpc_server/rpc_server.o
                0x000000002040e65c                tvm::runtime::micro_rpc::SerialWriteStream::Write(unsigned char const*, unsigned int)
 .text._ZN3tvm7runtime9micro_rpc17SerialWriteStream10PacketDoneEb
                0x000000002040e6b8       0x28 crt/src/runtime/crt/microtvm_rpc_server/rpc_server.o
                0x000000002040e6b8                tvm::runtime::micro_rpc::SerialWriteStream::PacketDone(bool)
 .text._ZN3tvm7runtime9micro_rpc17SerialWriteStreamdlEPv
                0x000000002040e6e0       0x20 crt/src/runtime/crt/microtvm_rpc_server/rpc_server.o
                0x000000002040e6e0                tvm::runtime::micro_rpc::SerialWriteStream::operator delete(void*)
 .text._ZN3tvm7runtime9micro_rpc7SessionD2Ev
                0x000000002040e700       0x38 crt/src/runtime/crt/microtvm_rpc_server/rpc_server.o
                0x000000002040e700                tvm::runtime::micro_rpc::Session::~Session()
                0x000000002040e700                tvm::runtime::micro_rpc::Session::~Session()
 .text._ZN3tvm7runtime9micro_rpc14MicroRPCServerC2EPhjPFiPvPKhjES4_
                0x000000002040e738      0x11c crt/src/runtime/crt/microtvm_rpc_server/rpc_server.o
                0x000000002040e738                tvm::runtime::micro_rpc::MicroRPCServer::MicroRPCServer(unsigned char*, unsigned int, int (*)(void*, unsigned char const*, unsigned int), void*)
                0x000000002040e738                tvm::runtime::micro_rpc::MicroRPCServer::MicroRPCServer(unsigned char*, unsigned int, int (*)(void*, unsigned char const*, unsigned int), void*)
 .text._ZN3tvm7runtime9micro_rpc14MicroRPCServernwEjPv
                0x000000002040e854       0x28 crt/src/runtime/crt/microtvm_rpc_server/rpc_server.o
                0x000000002040e854                tvm::runtime::micro_rpc::MicroRPCServer::operator new(unsigned int, void*)
 .text._ZN3tvm7runtime9micro_rpc14MicroRPCServer10InitializeEv
                0x000000002040e87c       0xd0 crt/src/runtime/crt/microtvm_rpc_server/rpc_server.o
                0x000000002040e87c                tvm::runtime::micro_rpc::MicroRPCServer::Initialize()
 .text._ZN3tvm7runtime9micro_rpc14MicroRPCServer4LoopEPPhPj
                0x000000002040e94c       0xf0 crt/src/runtime/crt/microtvm_rpc_server/rpc_server.o
                0x000000002040e94c                tvm::runtime::micro_rpc::MicroRPCServer::Loop(unsigned char**, unsigned int*)
 .text._ZN3tvm7runtime9micro_rpc14MicroRPCServer3LogEPKhj
                0x000000002040ea3c       0x60 crt/src/runtime/crt/microtvm_rpc_server/rpc_server.o
                0x000000002040ea3c                tvm::runtime::micro_rpc::MicroRPCServer::Log(unsigned char const*, unsigned int)
 .text._ZN3tvm7runtime9micro_rpc14MicroRPCServer21HandleCompleteMessageENS1_11MessageTypeEPNS1_11FrameBufferE
                0x000000002040ea9c       0x74 crt/src/runtime/crt/microtvm_rpc_server/rpc_server.o
                0x000000002040ea9c                tvm::runtime::micro_rpc::MicroRPCServer::HandleCompleteMessage(tvm::runtime::micro_rpc::MessageType, tvm::runtime::micro_rpc::FrameBuffer*)
 .text._ZN3tvm7runtime9micro_rpc14MicroRPCServer23HandleCompleteMessageCbEPvNS1_11MessageTypeEPNS1_11FrameBufferE
                0x000000002040eb10       0x48 crt/src/runtime/crt/microtvm_rpc_server/rpc_server.o
                0x000000002040eb10                tvm::runtime::micro_rpc::MicroRPCServer::HandleCompleteMessageCb(void*, tvm::runtime::micro_rpc::MessageType, tvm::runtime::micro_rpc::FrameBuffer*)
 .text._ZN3tvm7runtime12MinRPCServerINS0_9micro_rpc14MicroIOHandlerENS0_6detail13PageAllocatorEEC2EPS3_
                0x000000002040eb58       0x70 crt/src/runtime/crt/microtvm_rpc_server/rpc_server.o
                0x000000002040eb58                tvm::runtime::MinRPCServer<tvm::runtime::micro_rpc::MicroIOHandler, tvm::runtime::detail::PageAllocator>::MinRPCServer(tvm::runtime::micro_rpc::MicroIOHandler*)
                0x000000002040eb58                tvm::runtime::MinRPCServer<tvm::runtime::micro_rpc::MicroIOHandler, tvm::runtime::detail::PageAllocator>::MinRPCServer(tvm::runtime::micro_rpc::MicroIOHandler*)
 .text._ZN3tvm7runtime12MinRPCServerINS0_9micro_rpc14MicroIOHandlerENS0_6detail13PageAllocatorEE16ProcessOnePacketEv
                0x000000002040ebc8      0x130 crt/src/runtime/crt/microtvm_rpc_server/rpc_server.o
                0x000000002040ebc8                tvm::runtime::MinRPCServer<tvm::runtime::micro_rpc::MicroIOHandler, tvm::runtime::detail::PageAllocator>::ProcessOnePacket()
 .text._ZN3tvm7runtime6detail13PageAllocatorINS0_9micro_rpc14MicroIOHandlerEEC2EPS4_
                0x000000002040ecf8       0x30 crt/src/runtime/crt/microtvm_rpc_server/rpc_server.o
                0x000000002040ecf8                tvm::runtime::detail::PageAllocator<tvm::runtime::micro_rpc::MicroIOHandler>::PageAllocator(tvm::runtime::micro_rpc::MicroIOHandler*)
                0x000000002040ecf8                tvm::runtime::detail::PageAllocator<tvm::runtime::micro_rpc::MicroIOHandler>::PageAllocator(tvm::runtime::micro_rpc::MicroIOHandler*)
 .text._ZN3tvm7support12GenericArenaINS_7runtime6detail13PageAllocatorINS2_9micro_rpc14MicroIOHandlerEEEEC2ES7_
                0x000000002040ed28       0x88 crt/src/runtime/crt/microtvm_rpc_server/rpc_server.o
                0x000000002040ed28                tvm::support::GenericArena<tvm::runtime::detail::PageAllocator<tvm::runtime::micro_rpc::MicroIOHandler> >::GenericArena(tvm::runtime::detail::PageAllocator<tvm::runtime::micro_rpc::MicroIOHandler>)
                0x000000002040ed28                tvm::support::GenericArena<tvm::runtime::detail::PageAllocator<tvm::runtime::micro_rpc::MicroIOHandler> >::GenericArena(tvm::runtime::detail::PageAllocator<tvm::runtime::micro_rpc::MicroIOHandler>)
 .text._ZN3tvm7support12GenericArenaINS_7runtime6detail13PageAllocatorINS2_9micro_rpc14MicroIOHandlerEEEE7FreeAllEv
                0x000000002040edb0       0x50 crt/src/runtime/crt/microtvm_rpc_server/rpc_server.o
                0x000000002040edb0                tvm::support::GenericArena<tvm::runtime::detail::PageAllocator<tvm::runtime::micro_rpc::MicroIOHandler> >::FreeAll()
 .text._ZN3tvm7support12GenericArenaINS_7runtime6detail13PageAllocatorINS2_9micro_rpc14MicroIOHandlerEEEE10RecycleAllEv
                0x000000002040ee00       0x74 crt/src/runtime/crt/microtvm_rpc_server/rpc_server.o
                0x000000002040ee00                tvm::support::GenericArena<tvm::runtime::detail::PageAllocator<tvm::runtime::micro_rpc::MicroIOHandler> >::RecycleAll()
 .text._ZN3tvm7runtime12MinRPCServerINS0_9micro_rpc14MicroIOHandlerENS0_6detail13PageAllocatorEE4ReadIyEEvPT_
                0x000000002040ee74       0x3c crt/src/runtime/crt/microtvm_rpc_server/rpc_server.o
                0x000000002040ee74                void tvm::runtime::MinRPCServer<tvm::runtime::micro_rpc::MicroIOHandler, tvm::runtime::detail::PageAllocator>::Read<unsigned long long>(unsigned long long*)
 .text._ZN3tvm7runtime12MinRPCServerINS0_9micro_rpc14MicroIOHandlerENS0_6detail13PageAllocatorEE4ReadINS0_7RPCCodeEEEvPT_
                0x000000002040eeb0       0x3c crt/src/runtime/crt/microtvm_rpc_server/rpc_server.o
                0x000000002040eeb0                void tvm::runtime::MinRPCServer<tvm::runtime::micro_rpc::MicroIOHandler, tvm::runtime::detail::PageAllocator>::Read<tvm::runtime::RPCCode>(tvm::runtime::RPCCode*)
 .text._ZN3tvm7runtime12MinRPCServerINS0_9micro_rpc14MicroIOHandlerENS0_6detail13PageAllocatorEE17HandleSyscallFuncENS0_7RPCCodeE
                0x000000002040eeec      0x1f8 crt/src/runtime/crt/microtvm_rpc_server/rpc_server.o
                0x000000002040eeec                tvm::runtime::MinRPCServer<tvm::runtime::micro_rpc::MicroIOHandler, tvm::runtime::detail::PageAllocator>::HandleSyscallFunc(tvm::runtime::RPCCode)
 .text._ZN3tvm7runtime12MinRPCServerINS0_9micro_rpc14MicroIOHandlerENS0_6detail13PageAllocatorEE20HandleNormalCallFuncEv
                0x000000002040f0e4      0x1b4 crt/src/runtime/crt/microtvm_rpc_server/rpc_server.o
                0x000000002040f0e4                tvm::runtime::MinRPCServer<tvm::runtime::micro_rpc::MicroIOHandler, tvm::runtime::detail::PageAllocator>::HandleNormalCallFunc()
 .text._ZN3tvm7runtime12MinRPCServerINS0_9micro_rpc14MicroIOHandlerENS0_6detail13PageAllocatorEE16HandleInitServerEv
                0x000000002040f298       0xa8 crt/src/runtime/crt/microtvm_rpc_server/rpc_server.o
                0x000000002040f298                tvm::runtime::MinRPCServer<tvm::runtime::micro_rpc::MicroIOHandler, tvm::runtime::detail::PageAllocator>::HandleInitServer()
 .text._ZN3tvm7runtime12MinRPCServerINS0_9micro_rpc14MicroIOHandlerENS0_6detail13PageAllocatorEE20HandleCopyFromRemoteEv
                0x000000002040f340      0x2a0 crt/src/runtime/crt/microtvm_rpc_server/rpc_server.o
                0x000000002040f340                tvm::runtime::MinRPCServer<tvm::runtime::micro_rpc::MicroIOHandler, tvm::runtime::detail::PageAllocator>::HandleCopyFromRemote()
 .text._ZN3tvm7runtime12MinRPCServerINS0_9micro_rpc14MicroIOHandlerENS0_6detail13PageAllocatorEE18HandleCopyToRemoteEv
                0x000000002040f5e0      0x234 crt/src/runtime/crt/microtvm_rpc_server/rpc_server.o
                0x000000002040f5e0                tvm::runtime::MinRPCServer<tvm::runtime::micro_rpc::MicroIOHandler, tvm::runtime::detail::PageAllocator>::HandleCopyToRemote()
 .text._ZN3tvm7runtime12MinRPCServerINS0_9micro_rpc14MicroIOHandlerENS0_6detail13PageAllocatorEE8ShutdownEv
                0x000000002040f814       0x48 crt/src/runtime/crt/microtvm_rpc_server/rpc_server.o
                0x000000002040f814                tvm::runtime::MinRPCServer<tvm::runtime::micro_rpc::MicroIOHandler, tvm::runtime::detail::PageAllocator>::Shutdown()
 .text._ZN3tvm7runtime12MinRPCServerINS0_9micro_rpc14MicroIOHandlerENS0_6detail13PageAllocatorEE10ThrowErrorENS0_15RPCServerStatusENS0_7RPCCodeE
                0x000000002040f85c       0x44 crt/src/runtime/crt/microtvm_rpc_server/rpc_server.o
                0x000000002040f85c                tvm::runtime::MinRPCServer<tvm::runtime::micro_rpc::MicroIOHandler, tvm::runtime::detail::PageAllocator>::ThrowError(tvm::runtime::RPCServerStatus, tvm::runtime::RPCCode)
 .text._ZN3tvm7runtime6detail13PageAllocatorINS0_9micro_rpc14MicroIOHandlerEE8allocateEj
                0x000000002040f8a0       0xe0 crt/src/runtime/crt/microtvm_rpc_server/rpc_server.o
                0x000000002040f8a0                tvm::runtime::detail::PageAllocator<tvm::runtime::micro_rpc::MicroIOHandler>::allocate(unsigned int)
 .text._ZN3tvm7support12GenericArenaINS_7runtime6detail13PageAllocatorINS2_9micro_rpc14MicroIOHandlerEEEE12FreePageListEPPNS0_15ArenaPageHeaderE
                0x000000002040f980       0x6c crt/src/runtime/crt/microtvm_rpc_server/rpc_server.o
                0x000000002040f980                tvm::support::GenericArena<tvm::runtime::detail::PageAllocator<tvm::runtime::micro_rpc::MicroIOHandler> >::FreePageList(tvm::support::ArenaPageHeader**)
 .text._ZN3tvm7runtime12MinRPCServerINS0_9micro_rpc14MicroIOHandlerENS0_6detail13PageAllocatorEE12ReadRawBytesEPvj
                0x000000002040f9ec       0xf4 crt/src/runtime/crt/microtvm_rpc_server/rpc_server.o
                0x000000002040f9ec                tvm::runtime::MinRPCServer<tvm::runtime::micro_rpc::MicroIOHandler, tvm::runtime::detail::PageAllocator>::ReadRawBytes(void*, unsigned int)
 .text._ZN3tvm7runtime12MinRPCServerINS0_9micro_rpc14MicroIOHandlerENS0_6detail13PageAllocatorEE13RecvPackedSeqEPP8TVMValuePPiSA_
                0x000000002040fae0       0x48 crt/src/runtime/crt/microtvm_rpc_server/rpc_server.o
                0x000000002040fae0                tvm::runtime::MinRPCServer<tvm::runtime::micro_rpc::MicroIOHandler, tvm::runtime::detail::PageAllocator>::RecvPackedSeq(TVMValue**, int**, int*)
 .text._ZN3tvm7runtime12MinRPCServerINS0_9micro_rpc14MicroIOHandlerENS0_6detail13PageAllocatorEE17SyscallFreeHandleEP8TVMValuePii
                0x000000002040fb28      0x148 crt/src/runtime/crt/microtvm_rpc_server/rpc_server.o
                0x000000002040fb28                tvm::runtime::MinRPCServer<tvm::runtime::micro_rpc::MicroIOHandler, tvm::runtime::detail::PageAllocator>::SyscallFreeHandle(TVMValue*, int*, int)
 .text._ZN3tvm7runtime12MinRPCServerINS0_9micro_rpc14MicroIOHandlerENS0_6detail13PageAllocatorEE20SyscallGetGlobalFuncEP8TVMValuePii
                0x000000002040fc70       0xb0 crt/src/runtime/crt/microtvm_rpc_server/rpc_server.o
                0x000000002040fc70                tvm::runtime::MinRPCServer<tvm::runtime::micro_rpc::MicroIOHandler, tvm::runtime::detail::PageAllocator>::SyscallGetGlobalFunc(TVMValue*, int*, int)
 .text._ZN3tvm7runtime12MinRPCServerINS0_9micro_rpc14MicroIOHandlerENS0_6detail13PageAllocatorEE15ReturnExceptionEPKc
                0x000000002040fd20       0x38 crt/src/runtime/crt/microtvm_rpc_server/rpc_server.o
                0x000000002040fd20                tvm::runtime::MinRPCServer<tvm::runtime::micro_rpc::MicroIOHandler, tvm::runtime::detail::PageAllocator>::ReturnException(char const*)
 .text._ZN3tvm7runtime12MinRPCServerINS0_9micro_rpc14MicroIOHandlerENS0_6detail13PageAllocatorEE19SyscallDevAllocDataEP8TVMValuePii
                0x000000002040fd58      0x16c crt/src/runtime/crt/microtvm_rpc_server/rpc_server.o
                0x000000002040fd58                tvm::runtime::MinRPCServer<tvm::runtime::micro_rpc::MicroIOHandler, tvm::runtime::detail::PageAllocator>::SyscallDevAllocData(TVMValue*, int*, int)
 .text._ZN3tvm7runtime12MinRPCServerINS0_9micro_rpc14MicroIOHandlerENS0_6detail13PageAllocatorEE28SyscallDevAllocDataWithScopeEP8TVMValuePii
                0x000000002040fec4      0x13c crt/src/runtime/crt/microtvm_rpc_server/rpc_server.o
                0x000000002040fec4                tvm::runtime::MinRPCServer<tvm::runtime::micro_rpc::MicroIOHandler, tvm::runtime::detail::PageAllocator>::SyscallDevAllocDataWithScope(TVMValue*, int*, int)
 .text._ZN3tvm7runtime12MinRPCServerINS0_9micro_rpc14MicroIOHandlerENS0_6detail13PageAllocatorEE18SyscallDevFreeDataEP8TVMValuePii
                0x0000000020410000       0xe8 crt/src/runtime/crt/microtvm_rpc_server/rpc_server.o
                0x0000000020410000                tvm::runtime::MinRPCServer<tvm::runtime::micro_rpc::MicroIOHandler, tvm::runtime::detail::PageAllocator>::SyscallDevFreeData(TVMValue*, int*, int)
 .text._ZN3tvm7runtime12MinRPCServerINS0_9micro_rpc14MicroIOHandlerENS0_6detail13PageAllocatorEE22SyscallDevCreateStreamEP8TVMValuePii
                0x00000000204100e8       0xcc crt/src/runtime/crt/microtvm_rpc_server/rpc_server.o
                0x00000000204100e8                tvm::runtime::MinRPCServer<tvm::runtime::micro_rpc::MicroIOHandler, tvm::runtime::detail::PageAllocator>::SyscallDevCreateStream(TVMValue*, int*, int)
 .text._ZN3tvm7runtime12MinRPCServerINS0_9micro_rpc14MicroIOHandlerENS0_6detail13PageAllocatorEE20SyscallDevFreeStreamEP8TVMValuePii
                0x00000000204101b4       0xf4 crt/src/runtime/crt/microtvm_rpc_server/rpc_server.o
                0x00000000204101b4                tvm::runtime::MinRPCServer<tvm::runtime::micro_rpc::MicroIOHandler, tvm::runtime::detail::PageAllocator>::SyscallDevFreeStream(TVMValue*, int*, int)
 .text._ZN3tvm7runtime12MinRPCServerINS0_9micro_rpc14MicroIOHandlerENS0_6detail13PageAllocatorEE20SyscallDevStreamSyncEP8TVMValuePii
                0x00000000204102a8       0xf4 crt/src/runtime/crt/microtvm_rpc_server/rpc_server.o
                0x00000000204102a8                tvm::runtime::MinRPCServer<tvm::runtime::micro_rpc::MicroIOHandler, tvm::runtime::detail::PageAllocator>::SyscallDevStreamSync(TVMValue*, int*, int)
 .text._ZN3tvm7runtime12MinRPCServerINS0_9micro_rpc14MicroIOHandlerENS0_6detail13PageAllocatorEE19SyscallDevSetStreamEP8TVMValuePii
                0x000000002041039c       0xf4 crt/src/runtime/crt/microtvm_rpc_server/rpc_server.o
                0x000000002041039c                tvm::runtime::MinRPCServer<tvm::runtime::micro_rpc::MicroIOHandler, tvm::runtime::detail::PageAllocator>::SyscallDevSetStream(TVMValue*, int*, int)
 .text._ZN3tvm7runtime12MinRPCServerINS0_9micro_rpc14MicroIOHandlerENS0_6detail13PageAllocatorEE22SyscallCopyAmongRemoteEP8TVMValuePii
                0x0000000020410490      0x114 crt/src/runtime/crt/microtvm_rpc_server/rpc_server.o
                0x0000000020410490                tvm::runtime::MinRPCServer<tvm::runtime::micro_rpc::MicroIOHandler, tvm::runtime::detail::PageAllocator>::SyscallCopyAmongRemote(TVMValue*, int*, int)
 .text._ZN3tvm7runtime12MinRPCServerINS0_9micro_rpc14MicroIOHandlerENS0_6detail13PageAllocatorEE15ReturnPackedSeqEPK8TVMValuePKii
                0x00000000204105a4       0x48 crt/src/runtime/crt/microtvm_rpc_server/rpc_server.o
                0x00000000204105a4                tvm::runtime::MinRPCServer<tvm::runtime::micro_rpc::MicroIOHandler, tvm::runtime::detail::PageAllocator>::ReturnPackedSeq(TVMValue const*, int const*, int)
 .text._ZN3tvm7runtime12MinRPCServerINS0_9micro_rpc14MicroIOHandlerENS0_6detail13PageAllocatorEE18ReturnLastTVMErrorEv
                0x00000000204105ec       0x3c crt/src/runtime/crt/microtvm_rpc_server/rpc_server.o
                0x00000000204105ec                tvm::runtime::MinRPCServer<tvm::runtime::micro_rpc::MicroIOHandler, tvm::runtime::detail::PageAllocator>::ReturnLastTVMError()
 .text._ZN3tvm7runtime12MinRPCServerINS0_9micro_rpc14MicroIOHandlerENS0_6detail13PageAllocatorEE10ArenaAllocIcEEPT_i
                0x0000000020410628       0x44 crt/src/runtime/crt/microtvm_rpc_server/rpc_server.o
                0x0000000020410628                char* tvm::runtime::MinRPCServer<tvm::runtime::micro_rpc::MicroIOHandler, tvm::runtime::detail::PageAllocator>::ArenaAlloc<char>(int)
 .text._ZN3tvm7runtime12MinRPCServerINS0_9micro_rpc14MicroIOHandlerENS0_6detail13PageAllocatorEE9ReadArrayIcEEvPT_j
                0x000000002041066c       0x3c crt/src/runtime/crt/microtvm_rpc_server/rpc_server.o
                0x000000002041066c                void tvm::runtime::MinRPCServer<tvm::runtime::micro_rpc::MicroIOHandler, tvm::runtime::detail::PageAllocator>::ReadArray<char>(char*, unsigned int)
 .text._ZN3tvm7runtime12MinRPCServerINS0_9micro_rpc14MicroIOHandlerENS0_6detail13PageAllocatorEE10ReturnVoidEv
                0x00000000204106a8       0xbc crt/src/runtime/crt/microtvm_rpc_server/rpc_server.o
                0x00000000204106a8                tvm::runtime::MinRPCServer<tvm::runtime::micro_rpc::MicroIOHandler, tvm::runtime::detail::PageAllocator>::ReturnVoid()
 .text._ZN3tvm7runtime12MinRPCServerINS0_9micro_rpc14MicroIOHandlerENS0_6detail13PageAllocatorEE10ArenaAllocI8DLTensorEEPT_i
                0x0000000020410764       0x44 crt/src/runtime/crt/microtvm_rpc_server/rpc_server.o
                0x0000000020410764                DLTensor* tvm::runtime::MinRPCServer<tvm::runtime::micro_rpc::MicroIOHandler, tvm::runtime::detail::PageAllocator>::ArenaAlloc<DLTensor>(int)
 .text._ZN3tvm7runtime12MinRPCServerINS0_9micro_rpc14MicroIOHandlerENS0_6detail13PageAllocatorEE4ReadI8DLDeviceEEvPT_
                0x00000000204107a8       0x3c crt/src/runtime/crt/microtvm_rpc_server/rpc_server.o
                0x00000000204107a8                void tvm::runtime::MinRPCServer<tvm::runtime::micro_rpc::MicroIOHandler, tvm::runtime::detail::PageAllocator>::Read<DLDevice>(DLDevice*)
 .text._ZN3tvm7runtime12MinRPCServerINS0_9micro_rpc14MicroIOHandlerENS0_6detail13PageAllocatorEE4ReadIiEEvPT_
                0x00000000204107e4       0x3c crt/src/runtime/crt/microtvm_rpc_server/rpc_server.o
                0x00000000204107e4                void tvm::runtime::MinRPCServer<tvm::runtime::micro_rpc::MicroIOHandler, tvm::runtime::detail::PageAllocator>::Read<int>(int*)
 .text._ZN3tvm7runtime12MinRPCServerINS0_9micro_rpc14MicroIOHandlerENS0_6detail13PageAllocatorEE4ReadI10DLDataTypeEEvPT_
                0x0000000020410820       0x3c crt/src/runtime/crt/microtvm_rpc_server/rpc_server.o
                0x0000000020410820                void tvm::runtime::MinRPCServer<tvm::runtime::micro_rpc::MicroIOHandler, tvm::runtime::detail::PageAllocator>::Read<DLDataType>(DLDataType*)
 .text._ZN3tvm7runtime12MinRPCServerINS0_9micro_rpc14MicroIOHandlerENS0_6detail13PageAllocatorEE10ArenaAllocIxEEPT_i
                0x000000002041085c       0x44 crt/src/runtime/crt/microtvm_rpc_server/rpc_server.o
                0x000000002041085c                long long* tvm::runtime::MinRPCServer<tvm::runtime::micro_rpc::MicroIOHandler, tvm::runtime::detail::PageAllocator>::ArenaAlloc<long long>(int)
 .text._ZN3tvm7runtime12MinRPCServerINS0_9micro_rpc14MicroIOHandlerENS0_6detail13PageAllocatorEE9ReadArrayIxEEvPT_j
                0x00000000204108a0       0x44 crt/src/runtime/crt/microtvm_rpc_server/rpc_server.o
                0x00000000204108a0                void tvm::runtime::MinRPCServer<tvm::runtime::micro_rpc::MicroIOHandler, tvm::runtime::detail::PageAllocator>::ReadArray<long long>(long long*, unsigned int)
 .text._ZN3tvm7runtime12MinRPCServerINS0_9micro_rpc14MicroIOHandlerENS0_6detail13PageAllocatorEE10ArenaAllocIhEEPT_i
                0x00000000204108e4       0x44 crt/src/runtime/crt/microtvm_rpc_server/rpc_server.o
                0x00000000204108e4                unsigned char* tvm::runtime::MinRPCServer<tvm::runtime::micro_rpc::MicroIOHandler, tvm::runtime::detail::PageAllocator>::ArenaAlloc<unsigned char>(int)
 .text._ZN3tvm7runtime12MinRPCServerINS0_9micro_rpc14MicroIOHandlerENS0_6detail13PageAllocatorEE5WriteIyEEvRKT_
                0x0000000020410928       0x38 crt/src/runtime/crt/microtvm_rpc_server/rpc_server.o
                0x0000000020410928                void tvm::runtime::MinRPCServer<tvm::runtime::micro_rpc::MicroIOHandler, tvm::runtime::detail::PageAllocator>::Write<unsigned long long>(unsigned long long const&)
 .text._ZN3tvm7runtime12MinRPCServerINS0_9micro_rpc14MicroIOHandlerENS0_6detail13PageAllocatorEE5WriteINS0_7RPCCodeEEEvRKT_
                0x0000000020410960       0x38 crt/src/runtime/crt/microtvm_rpc_server/rpc_server.o
                0x0000000020410960                void tvm::runtime::MinRPCServer<tvm::runtime::micro_rpc::MicroIOHandler, tvm::runtime::detail::PageAllocator>::Write<tvm::runtime::RPCCode>(tvm::runtime::RPCCode const&)
 .text._ZN3tvm7runtime12MinRPCServerINS0_9micro_rpc14MicroIOHandlerENS0_6detail13PageAllocatorEE10WriteArrayIhEEvPT_j
                0x0000000020410998       0x3c crt/src/runtime/crt/microtvm_rpc_server/rpc_server.o
                0x0000000020410998                void tvm::runtime::MinRPCServer<tvm::runtime::micro_rpc::MicroIOHandler, tvm::runtime::detail::PageAllocator>::WriteArray<unsigned char>(unsigned char*, unsigned int)
 .text._ZN3tvm7runtime12MinRPCServerINS0_9micro_rpc14MicroIOHandlerENS0_6detail13PageAllocatorEE9ReadArrayIhEEvPT_j
                0x00000000204109d4       0x3c crt/src/runtime/crt/microtvm_rpc_server/rpc_server.o
                0x00000000204109d4                void tvm::runtime::MinRPCServer<tvm::runtime::micro_rpc::MicroIOHandler, tvm::runtime::detail::PageAllocator>::ReadArray<unsigned char>(unsigned char*, unsigned int)
 .text._ZN3tvm7runtime6detail13PageAllocatorINS0_9micro_rpc14MicroIOHandlerEE10deallocateEPNS_7support15ArenaPageHeaderE
                0x0000000020410a10       0x68 crt/src/runtime/crt/microtvm_rpc_server/rpc_server.o
                0x0000000020410a10                tvm::runtime::detail::PageAllocator<tvm::runtime::micro_rpc::MicroIOHandler>::deallocate(tvm::support::ArenaPageHeader*)
 .text._ZN3tvm7runtime12RPCReference13RecvPackedSeqINS0_12MinRPCServerINS0_9micro_rpc14MicroIOHandlerENS0_6detail13PageAllocatorEEEEEvPP8TVMValuePPiSC_PT_
                0x0000000020410a78      0x2dc crt/src/runtime/crt/microtvm_rpc_server/rpc_server.o
                0x0000000020410a78                void tvm::runtime::RPCReference::RecvPackedSeq<tvm::runtime::MinRPCServer<tvm::runtime::micro_rpc::MicroIOHandler, tvm::runtime::detail::PageAllocator> >(TVMValue**, int**, int*, tvm::runtime::MinRPCServer<tvm::runtime::micro_rpc::MicroIOHandler, tvm::runtime::detail::PageAllocator>*)
 .text._ZN3tvm7runtime12MinRPCServerINS0_9micro_rpc14MicroIOHandlerENS0_6detail13PageAllocatorEE12ReturnHandleEPv
                0x0000000020410d54       0xe8 crt/src/runtime/crt/microtvm_rpc_server/rpc_server.o
                0x0000000020410d54                tvm::runtime::MinRPCServer<tvm::runtime::micro_rpc::MicroIOHandler, tvm::runtime::detail::PageAllocator>::ReturnHandle(void*)
 .text._ZN3tvm7runtime12RPCReference15ReturnExceptionINS0_12MinRPCServerINS0_9micro_rpc14MicroIOHandlerENS0_6detail13PageAllocatorEEEEEvPKcPT_
                0x0000000020410e3c      0x11c crt/src/runtime/crt/microtvm_rpc_server/rpc_server.o
                0x0000000020410e3c                void tvm::runtime::RPCReference::ReturnException<tvm::runtime::MinRPCServer<tvm::runtime::micro_rpc::MicroIOHandler, tvm::runtime::detail::PageAllocator> >(char const*, tvm::runtime::MinRPCServer<tvm::runtime::micro_rpc::MicroIOHandler, tvm::runtime::detail::PageAllocator>*)
 .text._ZN3tvm7runtime12RPCReference15ReturnPackedSeqINS0_12MinRPCServerINS0_9micro_rpc14MicroIOHandlerENS0_6detail13PageAllocatorEEEEEvPK8TVMValuePKiiPT_
                0x0000000020410f58       0xdc crt/src/runtime/crt/microtvm_rpc_server/rpc_server.o
                0x0000000020410f58                void tvm::runtime::RPCReference::ReturnPackedSeq<tvm::runtime::MinRPCServer<tvm::runtime::micro_rpc::MicroIOHandler, tvm::runtime::detail::PageAllocator> >(TVMValue const*, int const*, int, tvm::runtime::MinRPCServer<tvm::runtime::micro_rpc::MicroIOHandler, tvm::runtime::detail::PageAllocator>*)
 .text._ZN3tvm7support12GenericArenaINS_7runtime6detail13PageAllocatorINS2_9micro_rpc14MicroIOHandlerEEEE9allocate_IcEEPT_i
                0x0000000020411034       0x44 crt/src/runtime/crt/microtvm_rpc_server/rpc_server.o
                0x0000000020411034                char* tvm::support::GenericArena<tvm::runtime::detail::PageAllocator<tvm::runtime::micro_rpc::MicroIOHandler> >::allocate_<char>(int)
 .text._ZN3tvm7runtime12MinRPCServerINS0_9micro_rpc14MicroIOHandlerENS0_6detail13PageAllocatorEE5WriteIlEEvRKT_
                0x0000000020411078       0x38 crt/src/runtime/crt/microtvm_rpc_server/rpc_server.o
                0x0000000020411078                void tvm::runtime::MinRPCServer<tvm::runtime::micro_rpc::MicroIOHandler, tvm::runtime::detail::PageAllocator>::Write<long>(long const&)
 .text._ZN3tvm7support12GenericArenaINS_7runtime6detail13PageAllocatorINS2_9micro_rpc14MicroIOHandlerEEEE9allocate_I8DLTensorEEPT_i
                0x00000000204110b0       0x54 crt/src/runtime/crt/microtvm_rpc_server/rpc_server.o
                0x00000000204110b0                DLTensor* tvm::support::GenericArena<tvm::runtime::detail::PageAllocator<tvm::runtime::micro_rpc::MicroIOHandler> >::allocate_<DLTensor>(int)
 .text._ZN3tvm7support12GenericArenaINS_7runtime6detail13PageAllocatorINS2_9micro_rpc14MicroIOHandlerEEEE9allocate_IxEEPT_i
                0x0000000020411104       0x48 crt/src/runtime/crt/microtvm_rpc_server/rpc_server.o
                0x0000000020411104                long long* tvm::support::GenericArena<tvm::runtime::detail::PageAllocator<tvm::runtime::micro_rpc::MicroIOHandler> >::allocate_<long long>(int)
 .text._ZN3tvm7support12GenericArenaINS_7runtime6detail13PageAllocatorINS2_9micro_rpc14MicroIOHandlerEEEE9allocate_IhEEPT_i
                0x000000002041114c       0x44 crt/src/runtime/crt/microtvm_rpc_server/rpc_server.o
                0x000000002041114c                unsigned char* tvm::support::GenericArena<tvm::runtime::detail::PageAllocator<tvm::runtime::micro_rpc::MicroIOHandler> >::allocate_<unsigned char>(int)
 .text._ZN3tvm7runtime12MinRPCServerINS0_9micro_rpc14MicroIOHandlerENS0_6detail13PageAllocatorEE13WriteRawBytesEPKvj
                0x0000000020411190       0xb8 crt/src/runtime/crt/microtvm_rpc_server/rpc_server.o
                0x0000000020411190                tvm::runtime::MinRPCServer<tvm::runtime::micro_rpc::MicroIOHandler, tvm::runtime::detail::PageAllocator>::WriteRawBytes(void const*, unsigned int)
 .text._ZN3tvm7runtime12MinRPCServerINS0_9micro_rpc14MicroIOHandlerENS0_6detail13PageAllocatorEE10ArenaAllocI8TVMValueEEPT_i
                0x0000000020411248       0x44 crt/src/runtime/crt/microtvm_rpc_server/rpc_server.o
                0x0000000020411248                TVMValue* tvm::runtime::MinRPCServer<tvm::runtime::micro_rpc::MicroIOHandler, tvm::runtime::detail::PageAllocator>::ArenaAlloc<TVMValue>(int)
 .text._ZN3tvm7runtime12MinRPCServerINS0_9micro_rpc14MicroIOHandlerENS0_6detail13PageAllocatorEE10ArenaAllocIiEEPT_i
                0x000000002041128c       0x44 crt/src/runtime/crt/microtvm_rpc_server/rpc_server.o
                0x000000002041128c                int* tvm::runtime::MinRPCServer<tvm::runtime::micro_rpc::MicroIOHandler, tvm::runtime::detail::PageAllocator>::ArenaAlloc<int>(int)
 .text._ZN3tvm7runtime12MinRPCServerINS0_9micro_rpc14MicroIOHandlerENS0_6detail13PageAllocatorEE9ReadArrayIiEEvPT_j
                0x00000000204112d0       0x44 crt/src/runtime/crt/microtvm_rpc_server/rpc_server.o
                0x00000000204112d0                void tvm::runtime::MinRPCServer<tvm::runtime::micro_rpc::MicroIOHandler, tvm::runtime::detail::PageAllocator>::ReadArray<int>(int*, unsigned int)
 .text._ZN3tvm7runtime12MinRPCServerINS0_9micro_rpc14MicroIOHandlerENS0_6detail13PageAllocatorEE4ReadIxEEvPT_
                0x0000000020411314       0x3c crt/src/runtime/crt/microtvm_rpc_server/rpc_server.o
                0x0000000020411314                void tvm::runtime::MinRPCServer<tvm::runtime::micro_rpc::MicroIOHandler, tvm::runtime::detail::PageAllocator>::Read<long long>(long long*)
 .text._ZN3tvm7runtime12MinRPCServerINS0_9micro_rpc14MicroIOHandlerENS0_6detail13PageAllocatorEE4ReadIlEEvPT_
                0x0000000020411350       0x3c crt/src/runtime/crt/microtvm_rpc_server/rpc_server.o
                0x0000000020411350                void tvm::runtime::MinRPCServer<tvm::runtime::micro_rpc::MicroIOHandler, tvm::runtime::detail::PageAllocator>::Read<long>(long*)
 .text._ZN3tvm7runtime12MinRPCServerINS0_9micro_rpc14MicroIOHandlerENS0_6detail13PageAllocatorEE10ArenaAllocI12TVMByteArrayEEPT_i
                0x000000002041138c       0x44 crt/src/runtime/crt/microtvm_rpc_server/rpc_server.o
                0x000000002041138c                TVMByteArray* tvm::runtime::MinRPCServer<tvm::runtime::micro_rpc::MicroIOHandler, tvm::runtime::detail::PageAllocator>::ArenaAlloc<TVMByteArray>(int)
 .text._ZN3tvm7runtime12RPCReference15ReceiveDLTensorIPNS0_12MinRPCServerINS0_9micro_rpc14MicroIOHandlerENS0_6detail13PageAllocatorEEEEEP8DLTensorT_
                0x00000000204113d0      0x100 crt/src/runtime/crt/microtvm_rpc_server/rpc_server.o
                0x00000000204113d0                DLTensor* tvm::runtime::RPCReference::ReceiveDLTensor<tvm::runtime::MinRPCServer<tvm::runtime::micro_rpc::MicroIOHandler, tvm::runtime::detail::PageAllocator>*>(tvm::runtime::MinRPCServer<tvm::runtime::micro_rpc::MicroIOHandler, tvm::runtime::detail::PageAllocator>*)
 .text._ZN3tvm7runtime12MinRPCServerINS0_9micro_rpc14MicroIOHandlerENS0_6detail13PageAllocatorEE12MessageStartEy
                0x00000000204114d0       0x48 crt/src/runtime/crt/microtvm_rpc_server/rpc_server.o
                0x00000000204114d0                tvm::runtime::MinRPCServer<tvm::runtime::micro_rpc::MicroIOHandler, tvm::runtime::detail::PageAllocator>::MessageStart(unsigned long long)
 .text._ZN3tvm7runtime12MinRPCServerINS0_9micro_rpc14MicroIOHandlerENS0_6detail13PageAllocatorEE10WriteArrayIKcEEvPT_j
                0x0000000020411518       0x3c crt/src/runtime/crt/microtvm_rpc_server/rpc_server.o
                0x0000000020411518                void tvm::runtime::MinRPCServer<tvm::runtime::micro_rpc::MicroIOHandler, tvm::runtime::detail::PageAllocator>::WriteArray<char const>(char const*, unsigned int)
 .text._ZN3tvm7runtime12MinRPCServerINS0_9micro_rpc14MicroIOHandlerENS0_6detail13PageAllocatorEE11MessageDoneEv
                0x0000000020411554       0x38 crt/src/runtime/crt/microtvm_rpc_server/rpc_server.o
                0x0000000020411554                tvm::runtime::MinRPCServer<tvm::runtime::micro_rpc::MicroIOHandler, tvm::runtime::detail::PageAllocator>::MessageDone()
 .text._ZN3tvm7runtime12RPCReference20PackedSeqGetNumBytesINS0_12MinRPCServerINS0_9micro_rpc14MicroIOHandlerENS0_6detail13PageAllocatorEEEEEyPK8TVMValuePKiibPT_
                0x000000002041158c       0x80 crt/src/runtime/crt/microtvm_rpc_server/rpc_server.o
                0x000000002041158c                unsigned long long tvm::runtime::RPCReference::PackedSeqGetNumBytes<tvm::runtime::MinRPCServer<tvm::runtime::micro_rpc::MicroIOHandler, tvm::runtime::detail::PageAllocator> >(TVMValue const*, int const*, int, bool, tvm::runtime::MinRPCServer<tvm::runtime::micro_rpc::MicroIOHandler, tvm::runtime::detail::PageAllocator>*)
 .text._ZN3tvm7runtime12RPCReference13SendPackedSeqINS0_12MinRPCServerINS0_9micro_rpc14MicroIOHandlerENS0_6detail13PageAllocatorEEEEEvPK8TVMValuePKiibPT_
                0x000000002041160c      0x2ec crt/src/runtime/crt/microtvm_rpc_server/rpc_server.o
                0x000000002041160c                void tvm::runtime::RPCReference::SendPackedSeq<tvm::runtime::MinRPCServer<tvm::runtime::micro_rpc::MicroIOHandler, tvm::runtime::detail::PageAllocator> >(TVMValue const*, int const*, int, bool, tvm::runtime::MinRPCServer<tvm::runtime::micro_rpc::MicroIOHandler, tvm::runtime::detail::PageAllocator>*)
 .text._ZN3tvm7support12GenericArenaINS_7runtime6detail13PageAllocatorINS2_9micro_rpc14MicroIOHandlerEEEE5AllocEjj
                0x00000000204118f8      0x158 crt/src/runtime/crt/microtvm_rpc_server/rpc_server.o
                0x00000000204118f8                tvm::support::GenericArena<tvm::runtime::detail::PageAllocator<tvm::runtime::micro_rpc::MicroIOHandler> >::Alloc(unsigned int, unsigned int)
 .text._ZN3tvm7support12GenericArenaINS_7runtime6detail13PageAllocatorINS2_9micro_rpc14MicroIOHandlerEEEE9allocate_I8TVMValueEEPT_i
                0x0000000020411a50       0x48 crt/src/runtime/crt/microtvm_rpc_server/rpc_server.o
                0x0000000020411a50                TVMValue* tvm::support::GenericArena<tvm::runtime::detail::PageAllocator<tvm::runtime::micro_rpc::MicroIOHandler> >::allocate_<TVMValue>(int)
 .text._ZN3tvm7support12GenericArenaINS_7runtime6detail13PageAllocatorINS2_9micro_rpc14MicroIOHandlerEEEE9allocate_IiEEPT_i
                0x0000000020411a98       0x48 crt/src/runtime/crt/microtvm_rpc_server/rpc_server.o
                0x0000000020411a98                int* tvm::support::GenericArena<tvm::runtime::detail::PageAllocator<tvm::runtime::micro_rpc::MicroIOHandler> >::allocate_<int>(int)
 .text._ZN3tvm7support12GenericArenaINS_7runtime6detail13PageAllocatorINS2_9micro_rpc14MicroIOHandlerEEEE9allocate_I12TVMByteArrayEEPT_i
                0x0000000020411ae0       0x48 crt/src/runtime/crt/microtvm_rpc_server/rpc_server.o
                0x0000000020411ae0                TVMByteArray* tvm::support::GenericArena<tvm::runtime::detail::PageAllocator<tvm::runtime::micro_rpc::MicroIOHandler> >::allocate_<TVMByteArray>(int)
 .text._ZN3tvm7runtime12RPCReference23PackedSeqNumBytesGetterINS0_12MinRPCServerINS0_9micro_rpc14MicroIOHandlerENS0_6detail13PageAllocatorEEEEC2EPS8_
                0x0000000020411b28       0x44 crt/src/runtime/crt/microtvm_rpc_server/rpc_server.o
                0x0000000020411b28                tvm::runtime::RPCReference::PackedSeqNumBytesGetter<tvm::runtime::MinRPCServer<tvm::runtime::micro_rpc::MicroIOHandler, tvm::runtime::detail::PageAllocator> >::PackedSeqNumBytesGetter(tvm::runtime::MinRPCServer<tvm::runtime::micro_rpc::MicroIOHandler, tvm::runtime::detail::PageAllocator>*)
                0x0000000020411b28                tvm::runtime::RPCReference::PackedSeqNumBytesGetter<tvm::runtime::MinRPCServer<tvm::runtime::micro_rpc::MicroIOHandler, tvm::runtime::detail::PageAllocator> >::PackedSeqNumBytesGetter(tvm::runtime::MinRPCServer<tvm::runtime::micro_rpc::MicroIOHandler, tvm::runtime::detail::PageAllocator>*)
 .text._ZN3tvm7runtime12RPCReference13SendPackedSeqINS1_23PackedSeqNumBytesGetterINS0_12MinRPCServerINS0_9micro_rpc14MicroIOHandlerENS0_6detail13PageAllocatorEEEEEEEvPK8TVMValuePKiibPT_
                0x0000000020411b6c      0x2e0 crt/src/runtime/crt/microtvm_rpc_server/rpc_server.o
                0x0000000020411b6c                void tvm::runtime::RPCReference::SendPackedSeq<tvm::runtime::RPCReference::PackedSeqNumBytesGetter<tvm::runtime::MinRPCServer<tvm::runtime::micro_rpc::MicroIOHandler, tvm::runtime::detail::PageAllocator> > >(TVMValue const*, int const*, int, bool, tvm::runtime::RPCReference::PackedSeqNumBytesGetter<tvm::runtime::MinRPCServer<tvm::runtime::micro_rpc::MicroIOHandler, tvm::runtime::detail::PageAllocator> >*)
 .text._ZNK3tvm7runtime12RPCReference23PackedSeqNumBytesGetterINS0_12MinRPCServerINS0_9micro_rpc14MicroIOHandlerENS0_6detail13PageAllocatorEEEE9num_bytesEv
                0x0000000020411e4c       0x30 crt/src/runtime/crt/microtvm_rpc_server/rpc_server.o
                0x0000000020411e4c                tvm::runtime::RPCReference::PackedSeqNumBytesGetter<tvm::runtime::MinRPCServer<tvm::runtime::micro_rpc::MicroIOHandler, tvm::runtime::detail::PageAllocator> >::num_bytes() const
 .text._ZN3tvm7runtime12MinRPCServerINS0_9micro_rpc14MicroIOHandlerENS0_6detail13PageAllocatorEE5WriteIiEEvRKT_
                0x0000000020411e7c       0x38 crt/src/runtime/crt/microtvm_rpc_server/rpc_server.o
                0x0000000020411e7c                void tvm::runtime::MinRPCServer<tvm::runtime::micro_rpc::MicroIOHandler, tvm::runtime::detail::PageAllocator>::Write<int>(int const&)
 .text._ZN3tvm7runtime12MinRPCServerINS0_9micro_rpc14MicroIOHandlerENS0_6detail13PageAllocatorEE10WriteArrayIKiEEvPT_j
                0x0000000020411eb4       0x44 crt/src/runtime/crt/microtvm_rpc_server/rpc_server.o
                0x0000000020411eb4                void tvm::runtime::MinRPCServer<tvm::runtime::micro_rpc::MicroIOHandler, tvm::runtime::detail::PageAllocator>::WriteArray<int const>(int const*, unsigned int)
 .text._ZN3tvm7runtime12MinRPCServerINS0_9micro_rpc14MicroIOHandlerENS0_6detail13PageAllocatorEE5WriteIxEEvRKT_
                0x0000000020411ef8       0x38 crt/src/runtime/crt/microtvm_rpc_server/rpc_server.o
                0x0000000020411ef8                void tvm::runtime::MinRPCServer<tvm::runtime::micro_rpc::MicroIOHandler, tvm::runtime::detail::PageAllocator>::Write<long long>(long long const&)
 .text._ZN3tvm7runtime12MinRPCServerINS0_9micro_rpc14MicroIOHandlerENS0_6detail13PageAllocatorEE5WriteI10DLDataTypeEEvRKT_
                0x0000000020411f30       0x38 crt/src/runtime/crt/microtvm_rpc_server/rpc_server.o
                0x0000000020411f30                void tvm::runtime::MinRPCServer<tvm::runtime::micro_rpc::MicroIOHandler, tvm::runtime::detail::PageAllocator>::Write<DLDataType>(DLDataType const&)
 .text._ZN3tvm7runtime12MinRPCServerINS0_9micro_rpc14MicroIOHandlerENS0_6detail13PageAllocatorEE5WriteI8DLDeviceEEvRKT_
                0x0000000020411f68       0x38 crt/src/runtime/crt/microtvm_rpc_server/rpc_server.o
                0x0000000020411f68                void tvm::runtime::MinRPCServer<tvm::runtime::micro_rpc::MicroIOHandler, tvm::runtime::detail::PageAllocator>::Write<DLDevice>(DLDevice const&)
 .text._ZN3tvm7runtime12RPCReference12SendDLTensorIPNS0_12MinRPCServerINS0_9micro_rpc14MicroIOHandlerENS0_6detail13PageAllocatorEEEEEvT_P8DLTensor
                0x0000000020411fa0       0xf4 crt/src/runtime/crt/microtvm_rpc_server/rpc_server.o
                0x0000000020411fa0                void tvm::runtime::RPCReference::SendDLTensor<tvm::runtime::MinRPCServer<tvm::runtime::micro_rpc::MicroIOHandler, tvm::runtime::detail::PageAllocator>*>(tvm::runtime::MinRPCServer<tvm::runtime::micro_rpc::MicroIOHandler, tvm::runtime::detail::PageAllocator>*, DLTensor*)
 .text._ZN3tvm7support12GenericArenaINS_7runtime6detail13PageAllocatorINS2_9micro_rpc14MicroIOHandlerEEEE10UpperAlignEjj
                0x0000000020412094       0x6c crt/src/runtime/crt/microtvm_rpc_server/rpc_server.o
                0x0000000020412094                tvm::support::GenericArena<tvm::runtime::detail::PageAllocator<tvm::runtime::micro_rpc::MicroIOHandler> >::UpperAlign(unsigned int, unsigned int)
 .text._ZN3tvm7runtime12RPCReference23PackedSeqNumBytesGetterINS0_12MinRPCServerINS0_9micro_rpc14MicroIOHandlerENS0_6detail13PageAllocatorEEEE5WriteIiEEvRKT_
                0x0000000020412100       0x64 crt/src/runtime/crt/microtvm_rpc_server/rpc_server.o
                0x0000000020412100                void tvm::runtime::RPCReference::PackedSeqNumBytesGetter<tvm::runtime::MinRPCServer<tvm::runtime::micro_rpc::MicroIOHandler, tvm::runtime::detail::PageAllocator> >::Write<int>(int const&)
 .text._ZN3tvm7runtime12RPCReference23PackedSeqNumBytesGetterINS0_12MinRPCServerINS0_9micro_rpc14MicroIOHandlerENS0_6detail13PageAllocatorEEEE10WriteArrayIiEEvPKT_j
                0x0000000020412164       0x70 crt/src/runtime/crt/microtvm_rpc_server/rpc_server.o
                0x0000000020412164                void tvm::runtime::RPCReference::PackedSeqNumBytesGetter<tvm::runtime::MinRPCServer<tvm::runtime::micro_rpc::MicroIOHandler, tvm::runtime::detail::PageAllocator> >::WriteArray<int>(int const*, unsigned int)
 .text._ZN3tvm7runtime12RPCReference23PackedSeqNumBytesGetterINS0_12MinRPCServerINS0_9micro_rpc14MicroIOHandlerENS0_6detail13PageAllocatorEEEE5WriteIxEEvRKT_
                0x00000000204121d4       0x64 crt/src/runtime/crt/microtvm_rpc_server/rpc_server.o
                0x00000000204121d4                void tvm::runtime::RPCReference::PackedSeqNumBytesGetter<tvm::runtime::MinRPCServer<tvm::runtime::micro_rpc::MicroIOHandler, tvm::runtime::detail::PageAllocator> >::Write<long long>(long long const&)
 .text._ZN3tvm7runtime12RPCReference23PackedSeqNumBytesGetterINS0_12MinRPCServerINS0_9micro_rpc14MicroIOHandlerENS0_6detail13PageAllocatorEEEE5WriteI10DLDataTypeEEvRKT_
                0x0000000020412238       0x64 crt/src/runtime/crt/microtvm_rpc_server/rpc_server.o
                0x0000000020412238                void tvm::runtime::RPCReference::PackedSeqNumBytesGetter<tvm::runtime::MinRPCServer<tvm::runtime::micro_rpc::MicroIOHandler, tvm::runtime::detail::PageAllocator> >::Write<DLDataType>(DLDataType const&)
 .text._ZN3tvm7runtime12RPCReference23PackedSeqNumBytesGetterINS0_12MinRPCServerINS0_9micro_rpc14MicroIOHandlerENS0_6detail13PageAllocatorEEEE5WriteIlEEvRKT_
                0x000000002041229c       0x64 crt/src/runtime/crt/microtvm_rpc_server/rpc_server.o
                0x000000002041229c                void tvm::runtime::RPCReference::PackedSeqNumBytesGetter<tvm::runtime::MinRPCServer<tvm::runtime::micro_rpc::MicroIOHandler, tvm::runtime::detail::PageAllocator> >::Write<long>(long const&)
 .text._ZN3tvm7runtime12RPCReference23PackedSeqNumBytesGetterINS0_12MinRPCServerINS0_9micro_rpc14MicroIOHandlerENS0_6detail13PageAllocatorEEEE5WriteI8DLDeviceEEvRKT_
                0x0000000020412300       0x64 crt/src/runtime/crt/microtvm_rpc_server/rpc_server.o
                0x0000000020412300                void tvm::runtime::RPCReference::PackedSeqNumBytesGetter<tvm::runtime::MinRPCServer<tvm::runtime::micro_rpc::MicroIOHandler, tvm::runtime::detail::PageAllocator> >::Write<DLDevice>(DLDevice const&)
 .text._ZN3tvm7runtime12RPCReference23PackedSeqNumBytesGetterINS0_12MinRPCServerINS0_9micro_rpc14MicroIOHandlerENS0_6detail13PageAllocatorEEEE10ThrowErrorENS0_15RPCServerStatusE
                0x0000000020412364       0x44 crt/src/runtime/crt/microtvm_rpc_server/rpc_server.o
                0x0000000020412364                tvm::runtime::RPCReference::PackedSeqNumBytesGetter<tvm::runtime::MinRPCServer<tvm::runtime::micro_rpc::MicroIOHandler, tvm::runtime::detail::PageAllocator> >::ThrowError(tvm::runtime::RPCServerStatus)
 .text._ZN3tvm7runtime12RPCReference23PackedSeqNumBytesGetterINS0_12MinRPCServerINS0_9micro_rpc14MicroIOHandlerENS0_6detail13PageAllocatorEEEE5WriteIyEEvRKT_
                0x00000000204123a8       0x64 crt/src/runtime/crt/microtvm_rpc_server/rpc_server.o
                0x00000000204123a8                void tvm::runtime::RPCReference::PackedSeqNumBytesGetter<tvm::runtime::MinRPCServer<tvm::runtime::micro_rpc::MicroIOHandler, tvm::runtime::detail::PageAllocator> >::Write<unsigned long long>(unsigned long long const&)
 .text._ZN3tvm7runtime12RPCReference12SendDLTensorIPNS1_23PackedSeqNumBytesGetterINS0_12MinRPCServerINS0_9micro_rpc14MicroIOHandlerENS0_6detail13PageAllocatorEEEEEEEvT_P8DLTensor
                0x000000002041240c       0xf0 crt/src/runtime/crt/microtvm_rpc_server/rpc_server.o
                0x000000002041240c                void tvm::runtime::RPCReference::SendDLTensor<tvm::runtime::RPCReference::PackedSeqNumBytesGetter<tvm::runtime::MinRPCServer<tvm::runtime::micro_rpc::MicroIOHandler, tvm::runtime::detail::PageAllocator> >*>(tvm::runtime::RPCReference::PackedSeqNumBytesGetter<tvm::runtime::MinRPCServer<tvm::runtime::micro_rpc::MicroIOHandler, tvm::runtime::detail::PageAllocator> >*, DLTensor*)
 .text._ZN3tvm7runtime12RPCReference23PackedSeqNumBytesGetterINS0_12MinRPCServerINS0_9micro_rpc14MicroIOHandlerENS0_6detail13PageAllocatorEEEE10WriteArrayIcEEvPKT_j
                0x00000000204124fc       0x6c crt/src/runtime/crt/microtvm_rpc_server/rpc_server.o
                0x00000000204124fc                void tvm::runtime::RPCReference::PackedSeqNumBytesGetter<tvm::runtime::MinRPCServer<tvm::runtime::micro_rpc::MicroIOHandler, tvm::runtime::detail::PageAllocator> >::WriteArray<char>(char const*, unsigned int)
 .text._ZN3tvm7runtime12MinRPCServerINS0_9micro_rpc14MicroIOHandlerENS0_6detail13PageAllocatorEE10WriteArrayIxEEvPT_j
                0x0000000020412568       0x44 crt/src/runtime/crt/microtvm_rpc_server/rpc_server.o
                0x0000000020412568                void tvm::runtime::MinRPCServer<tvm::runtime::micro_rpc::MicroIOHandler, tvm::runtime::detail::PageAllocator>::WriteArray<long long>(long long*, unsigned int)
 .text._ZN3tvm7runtime12RPCReference23PackedSeqNumBytesGetterINS0_12MinRPCServerINS0_9micro_rpc14MicroIOHandlerENS0_6detail13PageAllocatorEEEE10WriteArrayIxEEvPKT_j
                0x00000000204125ac       0x70 crt/src/runtime/crt/microtvm_rpc_server/rpc_server.o
                0x00000000204125ac                void tvm::runtime::RPCReference::PackedSeqNumBytesGetter<tvm::runtime::MinRPCServer<tvm::runtime::micro_rpc::MicroIOHandler, tvm::runtime::detail::PageAllocator> >::WriteArray<long long>(long long const*, unsigned int)
 .text          0x000000002041261c       0x70 ./libwrap.a(malloc.o)
                0x000000002041261c                __wrap_malloc
                0x000000002041266c                __wrap_free
 .text          0x000000002041268c       0xfc ./libwrap.a(write.o)
                0x00000000204126b0                __wrap_write
                0x00000000204126b0                __wrap__write
 .text          0x0000000020412788       0x44 ./libwrap.a(isatty.o)
                0x0000000020412788                __wrap_isatty
                0x0000000020412788                __wrap__isatty
 .text          0x00000000204127cc       0xa0 ./libwrap.a(sbrk.o)
                0x00000000204127cc                __wrap_sbrk
                0x00000000204127cc                __wrap__sbrk
 .text          0x000000002041286c       0x98 ./libwrap.a(_exit.o)
                0x000000002041286c                __wrap__exit
                0x000000002041286c                __wrap_exit
 .text          0x0000000020412904       0x8c ./libwrap.a(puts.o)
                0x0000000020412904                __wrap__puts
                0x0000000020412904                __wrap_puts
 .text          0x0000000020412990       0xd8 ./libwrap.a(write_hex.o)
                0x0000000020412990                write_hex
 .text          0x0000000020412a68      0x76c ./libwrap.a(printf.o)
                0x0000000020412a68                putchar
                0x00000000204130d4                __wrap_printf
                0x0000000020413144                __wrap_sprintf
 .text          0x00000000204131d4       0x46 /opt/pulp-riscv-gcc/bin/../lib/gcc/riscv32-unknown-elf/7.1.1/../../../../riscv32-unknown-elf/lib/libc.a(lib_a-assert.o)
                0x00000000204131d4                __assert_func
                0x0000000020413210                __assert
 .text          0x000000002041321a        0xc /opt/pulp-riscv-gcc/bin/../lib/gcc/riscv32-unknown-elf/7.1.1/../../../../riscv32-unknown-elf/lib/libc.a(lib_a-atexit.o)
                0x000000002041321a                atexit
 .text          0x0000000020413226       0x1e /opt/pulp-riscv-gcc/bin/../lib/gcc/riscv32-unknown-elf/7.1.1/../../../../riscv32-unknown-elf/lib/libc.a(lib_a-exit.o)
                0x0000000020413226                exit
 .text          0x0000000020413244       0x4c /opt/pulp-riscv-gcc/bin/../lib/gcc/riscv32-unknown-elf/7.1.1/../../../../riscv32-unknown-elf/lib/libc.a(lib_a-fini.o)
                0x0000000020413244                __libc_fini_array
 .text          0x0000000020413290       0x42 /opt/pulp-riscv-gcc/bin/../lib/gcc/riscv32-unknown-elf/7.1.1/../../../../riscv32-unknown-elf/lib/libc.a(lib_a-fiprintf.o)
                0x0000000020413290                _fiprintf_r
                0x00000000204132ac                fiprintf
 .text          0x00000000204132d2       0x42 /opt/pulp-riscv-gcc/bin/../lib/gcc/riscv32-unknown-elf/7.1.1/../../../../riscv32-unknown-elf/lib/libc.a(lib_a-fprintf.o)
                0x00000000204132d2                _fprintf_r
                0x00000000204132ee                fprintf
 .text          0x0000000020413314       0x82 /opt/pulp-riscv-gcc/bin/../lib/gcc/riscv32-unknown-elf/7.1.1/../../../../riscv32-unknown-elf/lib/libc.a(lib_a-fwrite.o)
                0x0000000020413314                _fwrite_r
                0x0000000020413388                fwrite
 .text          0x0000000020413396        0x0 /opt/pulp-riscv-gcc/bin/../lib/gcc/riscv32-unknown-elf/7.1.1/../../../../riscv32-unknown-elf/lib/libc.a(lib_a-impure.o)
 .text          0x0000000020413396       0x6a /opt/pulp-riscv-gcc/bin/../lib/gcc/riscv32-unknown-elf/7.1.1/../../../../riscv32-unknown-elf/lib/libc.a(lib_a-init.o)
                0x0000000020413396                __libc_init_array
 .text          0x0000000020413400       0x84 /opt/pulp-riscv-gcc/bin/../lib/gcc/riscv32-unknown-elf/7.1.1/../../../../riscv32-unknown-elf/lib/libc.a(lib_a-locale.o)
                0x0000000020413400                _setlocale_r
                0x0000000020413448                __locale_mb_cur_max
                0x000000002041345e                __locale_ctype_ptr_l
                0x0000000020413464                __locale_ctype_ptr
                0x000000002041347a                setlocale
 .text          0x0000000020413484       0x50 /opt/pulp-riscv-gcc/bin/../lib/gcc/riscv32-unknown-elf/7.1.1/../../../../riscv32-unknown-elf/lib/libc.a(lib_a-mbtowc_r.o)
                0x0000000020413484                _mbtowc_r
                0x000000002041349a                __ascii_mbtowc
 .text          0x00000000204134d4       0xbe /opt/pulp-riscv-gcc/bin/../lib/gcc/riscv32-unknown-elf/7.1.1/../../../../riscv32-unknown-elf/lib/libc.a(lib_a-memcpy.o)
                0x00000000204134d4                memcpy
 .text          0x0000000020413592       0xa8 /opt/pulp-riscv-gcc/bin/../lib/gcc/riscv32-unknown-elf/7.1.1/../../../../riscv32-unknown-elf/lib/libc.a(lib_a-memset.o)
                0x0000000020413592                memset
 .text          0x000000002041363a       0xd4 /opt/pulp-riscv-gcc/bin/../lib/gcc/riscv32-unknown-elf/7.1.1/../../../../riscv32-unknown-elf/lib/libc.a(lib_a-snprintf.o)
                0x000000002041363a                _snprintf_r
                0x00000000204136a2                snprintf
 .text          0x000000002041370e      0x11e /opt/pulp-riscv-gcc/bin/../lib/gcc/riscv32-unknown-elf/7.1.1/../../../../riscv32-unknown-elf/lib/libc.a(lib_a-strcmp.o)
                0x000000002041370e                strcmp
 .text          0x000000002041382c       0x12 /opt/pulp-riscv-gcc/bin/../lib/gcc/riscv32-unknown-elf/7.1.1/../../../../riscv32-unknown-elf/lib/libc.a(lib_a-strlen.o)
                0x000000002041382c                strlen
 .text          0x000000002041383e       0x2a /opt/pulp-riscv-gcc/bin/../lib/gcc/riscv32-unknown-elf/7.1.1/../../../../riscv32-unknown-elf/lib/libc.a(lib_a-strncmp.o)
                0x000000002041383e                strncmp
 .text          0x0000000020413868       0x30 /opt/pulp-riscv-gcc/bin/../lib/gcc/riscv32-unknown-elf/7.1.1/../../../../riscv32-unknown-elf/lib/libc.a(lib_a-strncpy.o)
                0x0000000020413868                strncpy
 .text          0x0000000020413898       0x18 /opt/pulp-riscv-gcc/bin/../lib/gcc/riscv32-unknown-elf/7.1.1/../../../../riscv32-unknown-elf/lib/libc.a(lib_a-strnlen.o)
                0x0000000020413898                strnlen
 .text          0x00000000204138b0      0x17e /opt/pulp-riscv-gcc/bin/../lib/gcc/riscv32-unknown-elf/7.1.1/../../../../riscv32-unknown-elf/lib/libc.a(lib_a-strtol.o)
                0x00000000204139f4                _strtol_r
                0x0000000020413a06                strtol_l
                0x0000000020413a14                strtol
 .text          0x0000000020413a2e      0x174 /opt/pulp-riscv-gcc/bin/../lib/gcc/riscv32-unknown-elf/7.1.1/../../../../riscv32-unknown-elf/lib/libc.a(lib_a-strtoul.o)
                0x0000000020413b68                _strtoul_r
                0x0000000020413b7a                strtoul_l
                0x0000000020413b88                strtoul
 .text          0x0000000020413ba2     0x1644 /opt/pulp-riscv-gcc/bin/../lib/gcc/riscv32-unknown-elf/7.1.1/../../../../riscv32-unknown-elf/lib/libc.a(lib_a-svfprintf.o)
                0x0000000020413ba2                _svfprintf_r
 .text          0x00000000204151e6      0xa18 /opt/pulp-riscv-gcc/bin/../lib/gcc/riscv32-unknown-elf/7.1.1/../../../../riscv32-unknown-elf/lib/libc.a(lib_a-vfiprintf.o)
                0x00000000204151e6                __sprint_r
                0x0000000020415286                _vfiprintf_r
                0x0000000020415b64                vfiprintf
 .text          0x0000000020415bfe     0x1718 /opt/pulp-riscv-gcc/bin/../lib/gcc/riscv32-unknown-elf/7.1.1/../../../../riscv32-unknown-elf/lib/libc.a(lib_a-vfprintf.o)
                0x0000000020415bfe                _vfprintf_r
                0x000000002041727e                vfprintf
 .text          0x0000000020417316       0x6e /opt/pulp-riscv-gcc/bin/../lib/gcc/riscv32-unknown-elf/7.1.1/../../../../riscv32-unknown-elf/lib/libc.a(lib_a-vsnprintf.o)
                0x0000000020417316                _vsnprintf_r
                0x0000000020417376                vsnprintf
 .text          0x0000000020417384       0x36 /opt/pulp-riscv-gcc/bin/../lib/gcc/riscv32-unknown-elf/7.1.1/../../../../riscv32-unknown-elf/lib/libc.a(lib_a-wctomb_r.o)
                0x0000000020417384                _wctomb_r
                0x000000002041739a                __ascii_wctomb
 .text          0x00000000204173ba       0xd6 /opt/pulp-riscv-gcc/bin/../lib/gcc/riscv32-unknown-elf/7.1.1/../../../../riscv32-unknown-elf/lib/libc.a(lib_a-wsetup.o)
                0x00000000204173ba                __swsetup_r
 .text          0x0000000020417490       0x10 /opt/pulp-riscv-gcc/bin/../lib/gcc/riscv32-unknown-elf/7.1.1/../../../../riscv32-unknown-elf/lib/libc.a(lib_a-abort.o)
                0x0000000020417490                abort
 .text          0x00000000204174a0       0x60 /opt/pulp-riscv-gcc/bin/../lib/gcc/riscv32-unknown-elf/7.1.1/../../../../riscv32-unknown-elf/lib/libc.a(lib_a-__atexit.o)
                0x00000000204174a0                __register_exitproc
 .text          0x0000000020417500       0xaa /opt/pulp-riscv-gcc/bin/../lib/gcc/riscv32-unknown-elf/7.1.1/../../../../riscv32-unknown-elf/lib/libc.a(lib_a-__call_atexit.o)
                0x0000000020417500                __call_exitprocs
 .text          0x00000000204175aa        0x0 /opt/pulp-riscv-gcc/bin/../lib/gcc/riscv32-unknown-elf/7.1.1/../../../../riscv32-unknown-elf/lib/libc.a(lib_a-ctype_.o)
 .text          0x00000000204175aa      0x1a2 /opt/pulp-riscv-gcc/bin/../lib/gcc/riscv32-unknown-elf/7.1.1/../../../../riscv32-unknown-elf/lib/libc.a(lib_a-fflush.o)
                0x00000000204175aa                __sflush_r
                0x0000000020417704                _fflush_r
                0x0000000020417732                fflush
 .text          0x000000002041774c      0x1d8 /opt/pulp-riscv-gcc/bin/../lib/gcc/riscv32-unknown-elf/7.1.1/../../../../riscv32-unknown-elf/lib/libc.a(lib_a-findfp.o)
                0x0000000020417750                _cleanup_r
                0x00000000204177ca                __sfmoreglue
                0x0000000020417812                _cleanup
                0x0000000020417818                __sinit
                0x0000000020417866                __sfp
                0x0000000020417900                __sfp_lock_acquire
                0x0000000020417902                __sfp_lock_release
                0x0000000020417904                __sinit_lock_acquire
                0x0000000020417906                __sinit_lock_release
                0x0000000020417908                __fp_lock_all
                0x0000000020417916                __fp_unlock_all
 .text          0x0000000020417924      0x104 /opt/pulp-riscv-gcc/bin/../lib/gcc/riscv32-unknown-elf/7.1.1/../../../../riscv32-unknown-elf/lib/libc.a(lib_a-fputwc.o)
                0x0000000020417924                __fputwc
                0x00000000204179dc                _fputwc_r
                0x00000000204179fa                fputwc
 .text          0x0000000020417a28      0x266 /opt/pulp-riscv-gcc/bin/../lib/gcc/riscv32-unknown-elf/7.1.1/../../../../riscv32-unknown-elf/lib/libc.a(lib_a-freer.o)
                0x0000000020417a28                _malloc_trim_r
                0x0000000020417ae4                _free_r
 .text          0x0000000020417c8e      0x2e6 /opt/pulp-riscv-gcc/bin/../lib/gcc/riscv32-unknown-elf/7.1.1/../../../../riscv32-unknown-elf/lib/libc.a(lib_a-fvwrite.o)
                0x0000000020417c8e                __sfvwrite_r
 .text          0x0000000020417f74       0xce /opt/pulp-riscv-gcc/bin/../lib/gcc/riscv32-unknown-elf/7.1.1/../../../../riscv32-unknown-elf/lib/libc.a(lib_a-fwalk.o)
                0x0000000020417f74                _fwalk
                0x0000000020417fd6                _fwalk_reent
 .text          0x0000000020418042     0x1684 /opt/pulp-riscv-gcc/bin/../lib/gcc/riscv32-unknown-elf/7.1.1/../../../../riscv32-unknown-elf/lib/libc.a(lib_a-ldtoa.o)
                0x0000000020418d74                _ldtoa_r
                0x0000000020419688                _ldcheck
 .text          0x00000000204196c6       0x32 /opt/pulp-riscv-gcc/bin/../lib/gcc/riscv32-unknown-elf/7.1.1/../../../../riscv32-unknown-elf/lib/libc.a(lib_a-localeconv.o)
                0x00000000204196c6                __localeconv_l
                0x00000000204196cc                _localeconv_r
                0x00000000204196e2                localeconv
 .text          0x00000000204196f8      0x104 /opt/pulp-riscv-gcc/bin/../lib/gcc/riscv32-unknown-elf/7.1.1/../../../../riscv32-unknown-elf/lib/libc.a(lib_a-makebuf.o)
                0x00000000204196f8                __swhatbuf_r
                0x000000002041975e                __smakebuf_r
 .text          0x00000000204197fc      0x498 /opt/pulp-riscv-gcc/bin/../lib/gcc/riscv32-unknown-elf/7.1.1/../../../../riscv32-unknown-elf/lib/libc.a(lib_a-mallocr.o)
                0x00000000204197fc                _malloc_r
 .text          0x0000000020419c94       0x1a /opt/pulp-riscv-gcc/bin/../lib/gcc/riscv32-unknown-elf/7.1.1/../../../../riscv32-unknown-elf/lib/libc.a(lib_a-memchr.o)
                0x0000000020419c94                memchr
 .text          0x0000000020419cae       0x3e /opt/pulp-riscv-gcc/bin/../lib/gcc/riscv32-unknown-elf/7.1.1/../../../../riscv32-unknown-elf/lib/libc.a(lib_a-memmove.o)
                0x0000000020419cae                memmove
 .text          0x0000000020419cec        0x4 /opt/pulp-riscv-gcc/bin/../lib/gcc/riscv32-unknown-elf/7.1.1/../../../../riscv32-unknown-elf/lib/libc.a(lib_a-mlock.o)
                0x0000000020419cec                __malloc_lock
                0x0000000020419cee                __malloc_unlock
 .text          0x0000000020419cf0      0x93c /opt/pulp-riscv-gcc/bin/../lib/gcc/riscv32-unknown-elf/7.1.1/../../../../riscv32-unknown-elf/lib/libc.a(lib_a-mprec.o)
                0x0000000020419cf0                _Balloc
                0x0000000020419d56                _Bfree
                0x0000000020419d6a                __multadd
                0x0000000020419dfe                __s2b
                0x0000000020419e9c                __hi0bits
                0x0000000020419ee4                __lo0bits
                0x0000000020419f4e                __i2b
                0x0000000020419f68                __multiply
                0x000000002041a0aa                __pow5mult
                0x000000002041a13a                __lshift
                0x000000002041a204                __mcmp
                0x000000002041a236                __mdiff
                0x000000002041a322                __ulp
                0x000000002041a368                __b2d
                0x000000002041a41a                __d2b
                0x000000002041a4e6                __ratio
                0x000000002041a556                _mprec_log10
                0x000000002041a5b0                __copybits
                0x000000002041a5e6                __any_on
 .text          0x000000002041a62c      0x3a4 /opt/pulp-riscv-gcc/bin/../lib/gcc/riscv32-unknown-elf/7.1.1/../../../../riscv32-unknown-elf/lib/libc.a(lib_a-reallocr.o)
                0x000000002041a62c                _realloc_r
 .text          0x000000002041a9d0       0x2c /opt/pulp-riscv-gcc/bin/../lib/gcc/riscv32-unknown-elf/7.1.1/../../../../riscv32-unknown-elf/lib/libc.a(lib_a-sbrkr.o)
                0x000000002041a9d0                _sbrk_r
 .text          0x000000002041a9fc       0x7e /opt/pulp-riscv-gcc/bin/../lib/gcc/riscv32-unknown-elf/7.1.1/../../../../riscv32-unknown-elf/lib/libc.a(lib_a-s_frexp.o)
                0x000000002041a9fc                frexp
 .text          0x000000002041aa7a      0x160 /opt/pulp-riscv-gcc/bin/../lib/gcc/riscv32-unknown-elf/7.1.1/../../../../riscv32-unknown-elf/lib/libc.a(lib_a-signal.o)
                0x000000002041aa7a                _init_signal_r
                0x000000002041aab8                _signal_r
                0x000000002041aafe                _raise_r
                0x000000002041ab62                __sigtramp_r
                0x000000002041abba                raise
                0x000000002041abc2                signal
                0x000000002041abcc                _init_signal
                0x000000002041abd2                __sigtramp
 .text          0x000000002041abda       0x32 /opt/pulp-riscv-gcc/bin/../lib/gcc/riscv32-unknown-elf/7.1.1/../../../../riscv32-unknown-elf/lib/libc.a(lib_a-signalr.o)
                0x000000002041abda                _kill_r
                0x000000002041ac08                _getpid_r
 .text          0x000000002041ac0c       0x80 /opt/pulp-riscv-gcc/bin/../lib/gcc/riscv32-unknown-elf/7.1.1/../../../../riscv32-unknown-elf/lib/libc.a(lib_a-sprintf.o)
                0x000000002041ac0c                _sprintf_r
                0x000000002041ac48                sprintf
 .text          0x000000002041ac8c       0xc8 /opt/pulp-riscv-gcc/bin/../lib/gcc/riscv32-unknown-elf/7.1.1/../../../../riscv32-unknown-elf/lib/libc.a(lib_a-stdio.o)
                0x000000002041ac8c                __sread
                0x000000002041acbe                __seofread
                0x000000002041acc2                __swrite
                0x000000002041ad14                __sseek
                0x000000002041ad4c                __sclose
 .text          0x000000002041ad54       0x12 /opt/pulp-riscv-gcc/bin/../lib/gcc/riscv32-unknown-elf/7.1.1/../../../../riscv32-unknown-elf/lib/libc.a(lib_a-strcpy.o)
                0x000000002041ad54                strcpy
 .text          0x000000002041ad66      0x9c2 /opt/pulp-riscv-gcc/bin/../lib/gcc/riscv32-unknown-elf/7.1.1/../../../../riscv32-unknown-elf/lib/libc.a(lib_a-svfiprintf.o)
                0x000000002041ad66                __ssprint_r
                0x000000002041ae9a                _svfiprintf_r
 .text          0x000000002041b728       0xc4 /opt/pulp-riscv-gcc/bin/../lib/gcc/riscv32-unknown-elf/7.1.1/../../../../riscv32-unknown-elf/lib/libc.a(lib_a-wbuf.o)
                0x000000002041b728                __swbuf_r
                0x000000002041b7e2                __swbuf
 .text          0x000000002041b7ec       0x64 /opt/pulp-riscv-gcc/bin/../lib/gcc/riscv32-unknown-elf/7.1.1/../../../../riscv32-unknown-elf/lib/libc.a(lib_a-wcrtomb.o)
                0x000000002041b7ec                _wcrtomb_r
                0x000000002041b844                wcrtomb
 .text          0x000000002041b850       0x30 /opt/pulp-riscv-gcc/bin/../lib/gcc/riscv32-unknown-elf/7.1.1/../../../../riscv32-unknown-elf/lib/libc.a(lib_a-writer.o)
                0x000000002041b850                _write_r
 .text          0x000000002041b880       0x78 /opt/pulp-riscv-gcc/bin/../lib/gcc/riscv32-unknown-elf/7.1.1/../../../../riscv32-unknown-elf/lib/libc.a(lib_a-callocr.o)
                0x000000002041b880                _calloc_r
 .text          0x000000002041b8f8       0x2a /opt/pulp-riscv-gcc/bin/../lib/gcc/riscv32-unknown-elf/7.1.1/../../../../riscv32-unknown-elf/lib/libc.a(lib_a-closer.o)
                0x000000002041b8f8                _close_r
 .text          0x000000002041b922       0x96 /opt/pulp-riscv-gcc/bin/../lib/gcc/riscv32-unknown-elf/7.1.1/../../../../riscv32-unknown-elf/lib/libc.a(lib_a-fclose.o)
                0x000000002041b922                _fclose_r
                0x000000002041b9b0                fclose
 .text          0x000000002041b9b8       0x2c /opt/pulp-riscv-gcc/bin/../lib/gcc/riscv32-unknown-elf/7.1.1/../../../../riscv32-unknown-elf/lib/libc.a(lib_a-fstatr.o)
                0x000000002041b9b8                _fstat_r
 .text          0x000000002041b9e4       0x2c /opt/pulp-riscv-gcc/bin/../lib/gcc/riscv32-unknown-elf/7.1.1/../../../../riscv32-unknown-elf/lib/libc.a(lib_a-isattyr.o)
                0x000000002041b9e4                _isatty_r
 .text          0x000000002041ba10       0x2e /opt/pulp-riscv-gcc/bin/../lib/gcc/riscv32-unknown-elf/7.1.1/../../../../riscv32-unknown-elf/lib/libc.a(lib_a-lseekr.o)
                0x000000002041ba10                _lseek_r
 .text          0x000000002041ba3e       0x2e /opt/pulp-riscv-gcc/bin/../lib/gcc/riscv32-unknown-elf/7.1.1/../../../../riscv32-unknown-elf/lib/libc.a(lib_a-readr.o)
                0x000000002041ba3e                _read_r
 .text          0x000000002041ba6c       0xc6 /opt/pulp-riscv-gcc/bin/../lib/gcc/riscv32-unknown-elf/7.1.1/../../../../riscv32-unknown-elf/lib/libc.a(lib_a-reent.o)
                0x000000002041ba6c                cleanup_glue
                0x000000002041ba8e                _reclaim_reent
 *fill*         0x000000002041bb32        0x2
 .text          0x000000002041bb34       0x78 ./libwrap.a(lseek.o)
                0x000000002041bb58                __wrap__lseek
                0x000000002041bb58                __wrap_lseek
 .text          0x000000002041bbac       0xf8 ./libwrap.a(read.o)
                0x000000002041bbd0                __wrap_read
                0x000000002041bbd0                __wrap__read
 .text          0x000000002041bca4       0x80 ./libwrap.a(fstat.o)
                0x000000002041bcc8                __wrap_fstat
                0x000000002041bcc8                __wrap__fstat
 .text          0x000000002041bd24       0x58 ./libwrap.a(close.o)
                0x000000002041bd48                __wrap_close
                0x000000002041bd48                __wrap__close
 .text          0x000000002041bd7c       0x20 ./libwrap.a(getpid.o)
                0x000000002041bd7c                __wrap_getpid
                0x000000002041bd7c                __wrap__getpid
 .text          0x000000002041bd9c       0x5c ./libwrap.a(kill.o)
                0x000000002041bdc0                __wrap_kill
                0x000000002041bdc0                __wrap__kill
 .text          0x000000002041bdf8      0x39c /opt/pulp-riscv-gcc/bin/../lib/gcc/riscv32-unknown-elf/7.1.1/libgcc.a(_divdi3.o)
                0x000000002041bdf8                __divdi3
 .text          0x000000002041c194      0x35e /opt/pulp-riscv-gcc/bin/../lib/gcc/riscv32-unknown-elf/7.1.1/libgcc.a(_udivdi3.o)
                0x000000002041c194                __udivdi3
 .text          0x000000002041c4f2      0x354 /opt/pulp-riscv-gcc/bin/../lib/gcc/riscv32-unknown-elf/7.1.1/libgcc.a(_umoddi3.o)
                0x000000002041c4f2                __umoddi3
 .text          0x000000002041c846      0x63a /opt/pulp-riscv-gcc/bin/../lib/gcc/riscv32-unknown-elf/7.1.1/libgcc.a(adddf3.o)
                0x000000002041c846                __adddf3
 .text          0x000000002041ce80      0x52e /opt/pulp-riscv-gcc/bin/../lib/gcc/riscv32-unknown-elf/7.1.1/libgcc.a(divdf3.o)
                0x000000002041ce80                __divdf3
 .text          0x000000002041d3ae       0xb2 /opt/pulp-riscv-gcc/bin/../lib/gcc/riscv32-unknown-elf/7.1.1/libgcc.a(ledf2.o)
                0x000000002041d3ae                __ltdf2
                0x000000002041d3ae                __ledf2
 .text          0x000000002041d460      0x46e /opt/pulp-riscv-gcc/bin/../lib/gcc/riscv32-unknown-elf/7.1.1/libgcc.a(muldf3.o)
                0x000000002041d460                __muldf3
 .text          0x000000002041d8ce       0x82 /opt/pulp-riscv-gcc/bin/../lib/gcc/riscv32-unknown-elf/7.1.1/libgcc.a(floatsidf.o)
                0x000000002041d8ce                __floatsidf
 .text          0x000000002041d950       0xa6 /opt/pulp-riscv-gcc/bin/../lib/gcc/riscv32-unknown-elf/7.1.1/libgcc.a(eqtf2.o)
                0x000000002041d950                __eqtf2
                0x000000002041d950                __netf2
 .text          0x000000002041d9f6      0x112 /opt/pulp-riscv-gcc/bin/../lib/gcc/riscv32-unknown-elf/7.1.1/libgcc.a(getf2.o)
                0x000000002041d9f6                __getf2
                0x000000002041d9f6                __gttf2
 .text          0x000000002041db08      0x112 /opt/pulp-riscv-gcc/bin/../lib/gcc/riscv32-unknown-elf/7.1.1/libgcc.a(letf2.o)
                0x000000002041db08                __letf2
                0x000000002041db08                __lttf2
 .text          0x000000002041dc1a      0xbd6 /opt/pulp-riscv-gcc/bin/../lib/gcc/riscv32-unknown-elf/7.1.1/libgcc.a(multf3.o)
                0x000000002041dc1a                __multf3
 .text          0x000000002041e7f0      0xea2 /opt/pulp-riscv-gcc/bin/../lib/gcc/riscv32-unknown-elf/7.1.1/libgcc.a(subtf3.o)
                0x000000002041e7f0                __subtf3
 .text          0x000000002041f692       0xf6 /opt/pulp-riscv-gcc/bin/../lib/gcc/riscv32-unknown-elf/7.1.1/libgcc.a(fixtfsi.o)
                0x000000002041f692                __fixtfsi
 .text          0x000000002041f788       0xee /opt/pulp-riscv-gcc/bin/../lib/gcc/riscv32-unknown-elf/7.1.1/libgcc.a(floatsitf.o)
                0x000000002041f788                __floatsitf
 .text          0x000000002041f876      0x16a /opt/pulp-riscv-gcc/bin/../lib/gcc/riscv32-unknown-elf/7.1.1/libgcc.a(extenddftf2.o)
                0x000000002041f876                __extenddftf2
 .text          0x000000002041f9e0      0x24e /opt/pulp-riscv-gcc/bin/../lib/gcc/riscv32-unknown-elf/7.1.1/libgcc.a(trunctfdf2.o)
                0x000000002041f9e0                __trunctfdf2
 *fill*         0x000000002041fc2e        0x2
 .text          0x000000002041fc30       0x16 /opt/pulp-riscv-gcc/bin/../lib/gcc/riscv32-unknown-elf/7.1.1/libgcc.a(muldi3.o)
                0x000000002041fc30                __mulsi3
 *fill*         0x000000002041fc46        0x2
 .text          0x000000002041fc48       0x5a /opt/pulp-riscv-gcc/bin/../lib/gcc/riscv32-unknown-elf/7.1.1/libgcc.a(multi3.o)
                0x000000002041fc48                __muldi3
 *fill*         0x000000002041fca2        0x2
 .text          0x000000002041fca4       0x7e /opt/pulp-riscv-gcc/bin/../lib/gcc/riscv32-unknown-elf/7.1.1/libgcc.a(div.o)
                0x000000002041fca4                __divsi3
                0x000000002041fcac                __udivsi3
                0x000000002041fcd8                __umodsi3
                0x000000002041fcfc                __modsi3
 .text          0x000000002041fd22        0x0 /opt/pulp-riscv-gcc/bin/../lib/gcc/riscv32-unknown-elf/7.1.1/libgcc.a(_clz.o)
 .text          0x000000002041fd22       0x3c /opt/pulp-riscv-gcc/bin/../lib/gcc/riscv32-unknown-elf/7.1.1/libgcc.a(_clzsi2.o)
                0x000000002041fd22                __clzsi2
 *(.gnu.linkonce.t.*)

.fini
 *(SORT(.fini))
                [!provide]                        PROVIDE (__etext, .)
                [!provide]                        PROVIDE (_etext, .)
                [!provide]                        PROVIDE (etext, .)

.rodata         0x000000002041fd60     0x2ae0
 *(.rdata)
 *(.rodata .rodata.*)
 .rodata        0x000000002041fd60      0x176 circular_buffer.o
 *fill*         0x000000002041fed6        0x2
 .rodata        0x000000002041fed8       0x4f main.o
 *fill*         0x000000002041ff27        0x1
 .rodata        0x000000002041ff28       0xf1 crt/src/runtime/crt/common/crt_backend_api.o
 *fill*         0x0000000020420019        0x7
 .rodata        0x0000000020420020      0x1e0 crt/src/runtime/crt/common/crt_runtime_api.o
 .rodata        0x0000000020420200       0xe0 crt/src/runtime/crt/common/ndarray.o
 .rodata        0x00000000204202e0       0x43 crt/src/runtime/crt/common/packed_func.o
 *fill*         0x0000000020420323        0x5
 .rodata        0x0000000020420328      0x9b0 crt/src/runtime/crt/graph_executor/graph_executor.o
 .rodata        0x0000000020420cd8      0x1fb crt/src/runtime/crt/graph_executor/load_json.o
 *fill*         0x0000000020420ed3        0x1
 .rodata        0x0000000020420ed4       0x9a crt/src/runtime/crt/graph_executor_module/graph_executor_module.o
 *fill*         0x0000000020420f6e        0x2
 .rodata        0x0000000020420f70      0x228 crt/src/runtime/crt/memory/page_allocator.o
 .rodata        0x0000000020421198      0x200 crt/src/runtime/crt/microtvm_rpc_common/crcccitt.o
                0x0000000020421198                crc_tabccitt
 .rodata        0x0000000020421398       0x1d /local/gerum/speech_recognition/external/hannah-tvm/tmp/TGC-VP/fw/bsp/env/tgfs-vp/init.o
 *fill*         0x00000000204213b5        0x3
 .rodata        0x00000000204213b8      0x178 crt/src/runtime/crt/microtvm_rpc_common/framing.o
 .rodata        0x0000000020421530      0x10e crt/src/runtime/crt/microtvm_rpc_common/session.o
 *fill*         0x000000002042163e        0x2
 .rodata._ZTVN3tvm7runtime9micro_rpc7Session15SessionReceiverE
                0x0000000020421640       0x18 crt/src/runtime/crt/microtvm_rpc_common/session.o
                0x0000000020421640                vtable for tvm::runtime::micro_rpc::Session::SessionReceiver
 .rodata._ZTVN3tvm7runtime9micro_rpc11WriteStreamE
                0x0000000020421658       0x18 crt/src/runtime/crt/microtvm_rpc_common/write_stream.o
                0x0000000020421658                vtable for tvm::runtime::micro_rpc::WriteStream
 .rodata        0x0000000020421670      0x1ef crt/src/runtime/crt/microtvm_rpc_server/rpc_server.o
 *fill*         0x000000002042185f        0x1
 .rodata._ZN3tvm7runtime12MinRPCServerINS0_9micro_rpc14MicroIOHandlerENS0_6detail13PageAllocatorEE16ProcessOnePacketEv
                0x0000000020421860       0x20 crt/src/runtime/crt/microtvm_rpc_server/rpc_server.o
 .rodata._ZN3tvm7runtime12MinRPCServerINS0_9micro_rpc14MicroIOHandlerENS0_6detail13PageAllocatorEE17HandleSyscallFuncENS0_7RPCCodeE
                0x0000000020421880       0x30 crt/src/runtime/crt/microtvm_rpc_server/rpc_server.o
 .rodata._ZN3tvm7runtime12RPCReference13RecvPackedSeqINS0_12MinRPCServerINS0_9micro_rpc14MicroIOHandlerENS0_6detail13PageAllocatorEEEEEvPP8TVMValuePPiSC_PT_
                0x00000000204218b0       0x34 crt/src/runtime/crt/microtvm_rpc_server/rpc_server.o
 .rodata._ZN3tvm7runtime12RPCReference13SendPackedSeqINS0_12MinRPCServerINS0_9micro_rpc14MicroIOHandlerENS0_6detail13PageAllocatorEEEEEvPK8TVMValuePKiibPT_
                0x00000000204218e4       0x38 crt/src/runtime/crt/microtvm_rpc_server/rpc_server.o
 .rodata._ZN3tvm7runtime12RPCReference13SendPackedSeqINS1_23PackedSeqNumBytesGetterINS0_12MinRPCServerINS0_9micro_rpc14MicroIOHandlerENS0_6detail13PageAllocatorEEEEEEEvPK8TVMValuePKiibPT_
                0x000000002042191c       0x38 crt/src/runtime/crt/microtvm_rpc_server/rpc_server.o
 .rodata._ZTVN3tvm7runtime9micro_rpc17SerialWriteStreamE
                0x0000000020421954       0x18 crt/src/runtime/crt/microtvm_rpc_server/rpc_server.o
                0x0000000020421954                vtable for tvm::runtime::micro_rpc::SerialWriteStream
 .rodata        0x000000002042196c       0x22 ./libwrap.a(_exit.o)
 *fill*         0x000000002042198e        0x2
 .rodata        0x0000000020421990        0x3 ./libwrap.a(write_hex.o)
 *fill*         0x0000000020421993        0x1
 .rodata        0x0000000020421994      0x160 ./libwrap.a(printf.o)
 .rodata.str1.4
                0x0000000020421af4       0x3f /opt/pulp-riscv-gcc/bin/../lib/gcc/riscv32-unknown-elf/7.1.1/../../../../riscv32-unknown-elf/lib/libc.a(lib_a-assert.o)
                                         0x43 (size before relaxing)
 *fill*         0x0000000020421b33        0x1
 .rodata.str1.4
                0x0000000020421b34        0xe /opt/pulp-riscv-gcc/bin/../lib/gcc/riscv32-unknown-elf/7.1.1/../../../../riscv32-unknown-elf/lib/libc.a(lib_a-locale.o)
                                         0x12 (size before relaxing)
 *fill*         0x0000000020421b42        0x2
 .rodata        0x0000000020421b44      0x18c /opt/pulp-riscv-gcc/bin/../lib/gcc/riscv32-unknown-elf/7.1.1/../../../../riscv32-unknown-elf/lib/libc.a(lib_a-svfprintf.o)
 .rodata.cst16  0x0000000020421cd0       0x30 /opt/pulp-riscv-gcc/bin/../lib/gcc/riscv32-unknown-elf/7.1.1/../../../../riscv32-unknown-elf/lib/libc.a(lib_a-svfprintf.o)
 .rodata.str1.4
                0x0000000020421d00       0x3a /opt/pulp-riscv-gcc/bin/../lib/gcc/riscv32-unknown-elf/7.1.1/../../../../riscv32-unknown-elf/lib/libc.a(lib_a-svfprintf.o)
 *fill*         0x0000000020421d3a        0x2
 .rodata        0x0000000020421d3c      0x18c /opt/pulp-riscv-gcc/bin/../lib/gcc/riscv32-unknown-elf/7.1.1/../../../../riscv32-unknown-elf/lib/libc.a(lib_a-vfiprintf.o)
 .rodata.str1.4
                0x0000000020421ec8       0x25 /opt/pulp-riscv-gcc/bin/../lib/gcc/riscv32-unknown-elf/7.1.1/../../../../riscv32-unknown-elf/lib/libc.a(lib_a-vfiprintf.o)
 .rodata        0x0000000020421ec8      0x18c /opt/pulp-riscv-gcc/bin/../lib/gcc/riscv32-unknown-elf/7.1.1/../../../../riscv32-unknown-elf/lib/libc.a(lib_a-vfprintf.o)
 .rodata.cst16  0x0000000020422054       0x30 /opt/pulp-riscv-gcc/bin/../lib/gcc/riscv32-unknown-elf/7.1.1/../../../../riscv32-unknown-elf/lib/libc.a(lib_a-vfprintf.o)
 .rodata.str1.4
                0x0000000020422054       0x3a /opt/pulp-riscv-gcc/bin/../lib/gcc/riscv32-unknown-elf/7.1.1/../../../../riscv32-unknown-elf/lib/libc.a(lib_a-vfprintf.o)
 .rodata        0x0000000020422054      0x101 /opt/pulp-riscv-gcc/bin/../lib/gcc/riscv32-unknown-elf/7.1.1/../../../../riscv32-unknown-elf/lib/libc.a(lib_a-ctype_.o)
                0x0000000020422054                _ctype_
 *fill*         0x0000000020422155        0x3
 .rodata        0x0000000020422158      0x254 /opt/pulp-riscv-gcc/bin/../lib/gcc/riscv32-unknown-elf/7.1.1/../../../../riscv32-unknown-elf/lib/libc.a(lib_a-ldtoa.o)
 .rodata.str1.4
                0x00000000204223ac       0x28 /opt/pulp-riscv-gcc/bin/../lib/gcc/riscv32-unknown-elf/7.1.1/../../../../riscv32-unknown-elf/lib/libc.a(lib_a-ldtoa.o)
 *fill*         0x00000000204223d4        0x4
 .rodata        0x00000000204223d8      0x128 /opt/pulp-riscv-gcc/bin/../lib/gcc/riscv32-unknown-elf/7.1.1/../../../../riscv32-unknown-elf/lib/libc.a(lib_a-mprec.o)
                0x00000000204223e8                __mprec_tens
                0x00000000204224b0                __mprec_tinytens
                0x00000000204224d8                __mprec_bigtens
 .rodata        0x0000000020422500      0x18c /opt/pulp-riscv-gcc/bin/../lib/gcc/riscv32-unknown-elf/7.1.1/../../../../riscv32-unknown-elf/lib/libc.a(lib_a-svfiprintf.o)
 .rodata.str1.4
                0x000000002042268c       0x25 /opt/pulp-riscv-gcc/bin/../lib/gcc/riscv32-unknown-elf/7.1.1/../../../../riscv32-unknown-elf/lib/libc.a(lib_a-svfiprintf.o)
 .rodata        0x000000002042268c       0x3c /opt/pulp-riscv-gcc/bin/../lib/gcc/riscv32-unknown-elf/7.1.1/libgcc.a(divdf3.o)
 .rodata        0x00000000204226c8       0x3c /opt/pulp-riscv-gcc/bin/../lib/gcc/riscv32-unknown-elf/7.1.1/libgcc.a(muldf3.o)
 .rodata        0x0000000020422704       0x3c /opt/pulp-riscv-gcc/bin/../lib/gcc/riscv32-unknown-elf/7.1.1/libgcc.a(multf3.o)
 .rodata        0x0000000020422740      0x100 /opt/pulp-riscv-gcc/bin/../lib/gcc/riscv32-unknown-elf/7.1.1/libgcc.a(_clz.o)
                0x0000000020422740                __clz_tab
 *(.gnu.linkonce.r.*)

.eh_frame       0x0000000020422840       0x7c
 .eh_frame      0x0000000020422840       0x2c /local/gerum/speech_recognition/external/hannah-tvm/tmp/TGC-VP/fw/bsp/env/start.o
 .eh_frame      0x000000002042286c       0x28 /opt/pulp-riscv-gcc/bin/../lib/gcc/riscv32-unknown-elf/7.1.1/libgcc.a(_divdi3.o)
 .eh_frame      0x0000000020422894       0x14 /opt/pulp-riscv-gcc/bin/../lib/gcc/riscv32-unknown-elf/7.1.1/libgcc.a(_udivdi3.o)
                                         0x28 (size before relaxing)
 .eh_frame      0x00000000204228a8       0x14 /opt/pulp-riscv-gcc/bin/../lib/gcc/riscv32-unknown-elf/7.1.1/libgcc.a(_umoddi3.o)
                                         0x28 (size before relaxing)

.rela.dyn       0x00000000204228bc        0x0
 .rela.init     0x00000000204228bc        0x0 /local/gerum/speech_recognition/external/hannah-tvm/tmp/TGC-VP/fw/bsp/env/start.o
 .rela.text.entry
                0x00000000204228bc        0x0 /local/gerum/speech_recognition/external/hannah-tvm/tmp/TGC-VP/fw/bsp/env/start.o
 .rela.text     0x00000000204228bc        0x0 /local/gerum/speech_recognition/external/hannah-tvm/tmp/TGC-VP/fw/bsp/env/start.o
 .rela.text._ZN3tvm7runtime9micro_rpc7Session15SessionReceiverD2Ev
                0x00000000204228bc        0x0 /local/gerum/speech_recognition/external/hannah-tvm/tmp/TGC-VP/fw/bsp/env/start.o
 .rela.text._ZN3tvm7runtime9micro_rpc7Session15SessionReceiverD0Ev
                0x00000000204228bc        0x0 /local/gerum/speech_recognition/external/hannah-tvm/tmp/TGC-VP/fw/bsp/env/start.o
 .rela.rodata._ZTVN3tvm7runtime9micro_rpc7Session15SessionReceiverE
                0x00000000204228bc        0x0 /local/gerum/speech_recognition/external/hannah-tvm/tmp/TGC-VP/fw/bsp/env/start.o
 .rela.text._ZN3tvm7runtime9micro_rpc7SessionC2EPNS1_6FramerEPNS1_11FrameBufferEPFvPvNS1_11MessageTypeES6_ES7_
                0x00000000204228bc        0x0 /local/gerum/speech_recognition/external/hannah-tvm/tmp/TGC-VP/fw/bsp/env/start.o
 .rela.text._ZN3tvm7runtime9micro_rpc11WriteStreamC2Ev
                0x00000000204228bc        0x0 /local/gerum/speech_recognition/external/hannah-tvm/tmp/TGC-VP/fw/bsp/env/start.o
 .rela.text._ZN3tvm7runtime9micro_rpc7Session15SessionReceiverC2EPS2_
                0x00000000204228bc        0x0 /local/gerum/speech_recognition/external/hannah-tvm/tmp/TGC-VP/fw/bsp/env/start.o
 .rela.text._ZN3tvm7runtime9micro_rpc17SerialWriteStreamC2Ev
                0x00000000204228bc        0x0 /local/gerum/speech_recognition/external/hannah-tvm/tmp/TGC-VP/fw/bsp/env/start.o
 .rela.text._ZN3tvm7runtime9micro_rpc17SerialWriteStreamD2Ev
                0x00000000204228bc        0x0 /local/gerum/speech_recognition/external/hannah-tvm/tmp/TGC-VP/fw/bsp/env/start.o
 .rela.text._ZN3tvm7runtime9micro_rpc17SerialWriteStreamD0Ev
                0x00000000204228bc        0x0 /local/gerum/speech_recognition/external/hannah-tvm/tmp/TGC-VP/fw/bsp/env/start.o
 .rela.text._ZN3tvm7runtime9micro_rpc7SessionD2Ev
                0x00000000204228bc        0x0 /local/gerum/speech_recognition/external/hannah-tvm/tmp/TGC-VP/fw/bsp/env/start.o
 .rela.text._ZN3tvm7runtime9micro_rpc14MicroRPCServerC2EPhjPFiPvPKhjES4_
                0x00000000204228bc        0x0 /local/gerum/speech_recognition/external/hannah-tvm/tmp/TGC-VP/fw/bsp/env/start.o
 .rela.text._ZN3tvm7runtime9micro_rpc14MicroRPCServer21HandleCompleteMessageENS1_11MessageTypeEPNS1_11FrameBufferE
                0x00000000204228bc        0x0 /local/gerum/speech_recognition/external/hannah-tvm/tmp/TGC-VP/fw/bsp/env/start.o
 .rela.text._ZN3tvm7runtime9micro_rpc14MicroRPCServer23HandleCompleteMessageCbEPvNS1_11MessageTypeEPNS1_11FrameBufferE
                0x00000000204228bc        0x0 /local/gerum/speech_recognition/external/hannah-tvm/tmp/TGC-VP/fw/bsp/env/start.o
 .rela.text._ZN3tvm7runtime12MinRPCServerINS0_9micro_rpc14MicroIOHandlerENS0_6detail13PageAllocatorEEC2EPS3_
                0x00000000204228bc        0x0 /local/gerum/speech_recognition/external/hannah-tvm/tmp/TGC-VP/fw/bsp/env/start.o
 .rela.text._ZN3tvm7runtime12MinRPCServerINS0_9micro_rpc14MicroIOHandlerENS0_6detail13PageAllocatorEE16ProcessOnePacketEv
                0x00000000204228bc        0x0 /local/gerum/speech_recognition/external/hannah-tvm/tmp/TGC-VP/fw/bsp/env/start.o
 .rela.text._ZN3tvm7support12GenericArenaINS_7runtime6detail13PageAllocatorINS2_9micro_rpc14MicroIOHandlerEEEEC2ES7_
                0x00000000204228bc        0x0 /local/gerum/speech_recognition/external/hannah-tvm/tmp/TGC-VP/fw/bsp/env/start.o
 .rela.text._ZN3tvm7support12GenericArenaINS_7runtime6detail13PageAllocatorINS2_9micro_rpc14MicroIOHandlerEEEE7FreeAllEv
                0x00000000204228bc        0x0 /local/gerum/speech_recognition/external/hannah-tvm/tmp/TGC-VP/fw/bsp/env/start.o
 .rela.text._ZN3tvm7runtime12MinRPCServerINS0_9micro_rpc14MicroIOHandlerENS0_6detail13PageAllocatorEE4ReadIyEEvPT_
                0x00000000204228bc        0x0 /local/gerum/speech_recognition/external/hannah-tvm/tmp/TGC-VP/fw/bsp/env/start.o
 .rela.text._ZN3tvm7runtime12MinRPCServerINS0_9micro_rpc14MicroIOHandlerENS0_6detail13PageAllocatorEE4ReadINS0_7RPCCodeEEEvPT_
                0x00000000204228bc        0x0 /local/gerum/speech_recognition/external/hannah-tvm/tmp/TGC-VP/fw/bsp/env/start.o
 .rela.text._ZN3tvm7runtime12MinRPCServerINS0_9micro_rpc14MicroIOHandlerENS0_6detail13PageAllocatorEE17HandleSyscallFuncENS0_7RPCCodeE
                0x00000000204228bc        0x0 /local/gerum/speech_recognition/external/hannah-tvm/tmp/TGC-VP/fw/bsp/env/start.o
 .rela.text._ZN3tvm7runtime12MinRPCServerINS0_9micro_rpc14MicroIOHandlerENS0_6detail13PageAllocatorEE20HandleNormalCallFuncEv
                0x00000000204228bc        0x0 /local/gerum/speech_recognition/external/hannah-tvm/tmp/TGC-VP/fw/bsp/env/start.o
 .rela.text._ZN3tvm7runtime12MinRPCServerINS0_9micro_rpc14MicroIOHandlerENS0_6detail13PageAllocatorEE16HandleInitServerEv
                0x00000000204228bc        0x0 /local/gerum/speech_recognition/external/hannah-tvm/tmp/TGC-VP/fw/bsp/env/start.o
 .rela.text._ZN3tvm7runtime12MinRPCServerINS0_9micro_rpc14MicroIOHandlerENS0_6detail13PageAllocatorEE20HandleCopyFromRemoteEv
                0x00000000204228bc        0x0 /local/gerum/speech_recognition/external/hannah-tvm/tmp/TGC-VP/fw/bsp/env/start.o
 .rela.text._ZN3tvm7runtime12MinRPCServerINS0_9micro_rpc14MicroIOHandlerENS0_6detail13PageAllocatorEE18HandleCopyToRemoteEv
                0x00000000204228bc        0x0 /local/gerum/speech_recognition/external/hannah-tvm/tmp/TGC-VP/fw/bsp/env/start.o
 .rela.text._ZN3tvm7runtime12MinRPCServerINS0_9micro_rpc14MicroIOHandlerENS0_6detail13PageAllocatorEE8ShutdownEv
                0x00000000204228bc        0x0 /local/gerum/speech_recognition/external/hannah-tvm/tmp/TGC-VP/fw/bsp/env/start.o
 .rela.text._ZN3tvm7runtime12MinRPCServerINS0_9micro_rpc14MicroIOHandlerENS0_6detail13PageAllocatorEE10ThrowErrorENS0_15RPCServerStatusENS0_7RPCCodeE
                0x00000000204228bc        0x0 /local/gerum/speech_recognition/external/hannah-tvm/tmp/TGC-VP/fw/bsp/env/start.o
 .rela.text._ZN3tvm7runtime6detail13PageAllocatorINS0_9micro_rpc14MicroIOHandlerEE8allocateEj
                0x00000000204228bc        0x0 /local/gerum/speech_recognition/external/hannah-tvm/tmp/TGC-VP/fw/bsp/env/start.o
 .rela.text._ZN3tvm7support12GenericArenaINS_7runtime6detail13PageAllocatorINS2_9micro_rpc14MicroIOHandlerEEEE12FreePageListEPPNS0_15ArenaPageHeaderE
                0x00000000204228bc        0x0 /local/gerum/speech_recognition/external/hannah-tvm/tmp/TGC-VP/fw/bsp/env/start.o
 .rela.text._ZN3tvm7runtime12MinRPCServerINS0_9micro_rpc14MicroIOHandlerENS0_6detail13PageAllocatorEE12ReadRawBytesEPvj
                0x00000000204228bc        0x0 /local/gerum/speech_recognition/external/hannah-tvm/tmp/TGC-VP/fw/bsp/env/start.o
 .rela.text._ZN3tvm7runtime12MinRPCServerINS0_9micro_rpc14MicroIOHandlerENS0_6detail13PageAllocatorEE13RecvPackedSeqEPP8TVMValuePPiSA_
                0x00000000204228bc        0x0 /local/gerum/speech_recognition/external/hannah-tvm/tmp/TGC-VP/fw/bsp/env/start.o
 .rela.text._ZN3tvm7runtime12MinRPCServerINS0_9micro_rpc14MicroIOHandlerENS0_6detail13PageAllocatorEE17SyscallFreeHandleEP8TVMValuePii
                0x00000000204228bc        0x0 /local/gerum/speech_recognition/external/hannah-tvm/tmp/TGC-VP/fw/bsp/env/start.o
 .rela.text._ZN3tvm7runtime12MinRPCServerINS0_9micro_rpc14MicroIOHandlerENS0_6detail13PageAllocatorEE20SyscallGetGlobalFuncEP8TVMValuePii
                0x00000000204228bc        0x0 /local/gerum/speech_recognition/external/hannah-tvm/tmp/TGC-VP/fw/bsp/env/start.o
 .rela.text._ZN3tvm7runtime12MinRPCServerINS0_9micro_rpc14MicroIOHandlerENS0_6detail13PageAllocatorEE15ReturnExceptionEPKc
                0x00000000204228bc        0x0 /local/gerum/speech_recognition/external/hannah-tvm/tmp/TGC-VP/fw/bsp/env/start.o
 .rela.text._ZN3tvm7runtime12MinRPCServerINS0_9micro_rpc14MicroIOHandlerENS0_6detail13PageAllocatorEE19SyscallDevAllocDataEP8TVMValuePii
                0x00000000204228bc        0x0 /local/gerum/speech_recognition/external/hannah-tvm/tmp/TGC-VP/fw/bsp/env/start.o
 .rela.text._ZN3tvm7runtime12MinRPCServerINS0_9micro_rpc14MicroIOHandlerENS0_6detail13PageAllocatorEE28SyscallDevAllocDataWithScopeEP8TVMValuePii
                0x00000000204228bc        0x0 /local/gerum/speech_recognition/external/hannah-tvm/tmp/TGC-VP/fw/bsp/env/start.o
 .rela.text._ZN3tvm7runtime12MinRPCServerINS0_9micro_rpc14MicroIOHandlerENS0_6detail13PageAllocatorEE18SyscallDevFreeDataEP8TVMValuePii
                0x00000000204228bc        0x0 /local/gerum/speech_recognition/external/hannah-tvm/tmp/TGC-VP/fw/bsp/env/start.o
 .rela.text._ZN3tvm7runtime12MinRPCServerINS0_9micro_rpc14MicroIOHandlerENS0_6detail13PageAllocatorEE22SyscallDevCreateStreamEP8TVMValuePii
                0x00000000204228bc        0x0 /local/gerum/speech_recognition/external/hannah-tvm/tmp/TGC-VP/fw/bsp/env/start.o
 .rela.text._ZN3tvm7runtime12MinRPCServerINS0_9micro_rpc14MicroIOHandlerENS0_6detail13PageAllocatorEE20SyscallDevFreeStreamEP8TVMValuePii
                0x00000000204228bc        0x0 /local/gerum/speech_recognition/external/hannah-tvm/tmp/TGC-VP/fw/bsp/env/start.o
 .rela.text._ZN3tvm7runtime12MinRPCServerINS0_9micro_rpc14MicroIOHandlerENS0_6detail13PageAllocatorEE20SyscallDevStreamSyncEP8TVMValuePii
                0x00000000204228bc        0x0 /local/gerum/speech_recognition/external/hannah-tvm/tmp/TGC-VP/fw/bsp/env/start.o
 .rela.text._ZN3tvm7runtime12MinRPCServerINS0_9micro_rpc14MicroIOHandlerENS0_6detail13PageAllocatorEE19SyscallDevSetStreamEP8TVMValuePii
                0x00000000204228bc        0x0 /local/gerum/speech_recognition/external/hannah-tvm/tmp/TGC-VP/fw/bsp/env/start.o
 .rela.text._ZN3tvm7runtime12MinRPCServerINS0_9micro_rpc14MicroIOHandlerENS0_6detail13PageAllocatorEE22SyscallCopyAmongRemoteEP8TVMValuePii
                0x00000000204228bc        0x0 /local/gerum/speech_recognition/external/hannah-tvm/tmp/TGC-VP/fw/bsp/env/start.o
 .rela.text._ZN3tvm7runtime12MinRPCServerINS0_9micro_rpc14MicroIOHandlerENS0_6detail13PageAllocatorEE15ReturnPackedSeqEPK8TVMValuePKii
                0x00000000204228bc        0x0 /local/gerum/speech_recognition/external/hannah-tvm/tmp/TGC-VP/fw/bsp/env/start.o
 .rela.text._ZN3tvm7runtime12MinRPCServerINS0_9micro_rpc14MicroIOHandlerENS0_6detail13PageAllocatorEE18ReturnLastTVMErrorEv
                0x00000000204228bc        0x0 /local/gerum/speech_recognition/external/hannah-tvm/tmp/TGC-VP/fw/bsp/env/start.o
 .rela.text._ZN3tvm7runtime12MinRPCServerINS0_9micro_rpc14MicroIOHandlerENS0_6detail13PageAllocatorEE10ArenaAllocIcEEPT_i
                0x00000000204228bc        0x0 /local/gerum/speech_recognition/external/hannah-tvm/tmp/TGC-VP/fw/bsp/env/start.o
 .rela.text._ZN3tvm7runtime12MinRPCServerINS0_9micro_rpc14MicroIOHandlerENS0_6detail13PageAllocatorEE9ReadArrayIcEEvPT_j
                0x00000000204228bc        0x0 /local/gerum/speech_recognition/external/hannah-tvm/tmp/TGC-VP/fw/bsp/env/start.o
 .rela.text._ZN3tvm7runtime12MinRPCServerINS0_9micro_rpc14MicroIOHandlerENS0_6detail13PageAllocatorEE10ReturnVoidEv
                0x00000000204228bc        0x0 /local/gerum/speech_recognition/external/hannah-tvm/tmp/TGC-VP/fw/bsp/env/start.o
 .rela.text._ZN3tvm7runtime12MinRPCServerINS0_9micro_rpc14MicroIOHandlerENS0_6detail13PageAllocatorEE10ArenaAllocI8DLTensorEEPT_i
                0x00000000204228bc        0x0 /local/gerum/speech_recognition/external/hannah-tvm/tmp/TGC-VP/fw/bsp/env/start.o
 .rela.text._ZN3tvm7runtime12MinRPCServerINS0_9micro_rpc14MicroIOHandlerENS0_6detail13PageAllocatorEE4ReadI8DLDeviceEEvPT_
                0x00000000204228bc        0x0 /local/gerum/speech_recognition/external/hannah-tvm/tmp/TGC-VP/fw/bsp/env/start.o
 .rela.text._ZN3tvm7runtime12MinRPCServerINS0_9micro_rpc14MicroIOHandlerENS0_6detail13PageAllocatorEE4ReadIiEEvPT_
                0x00000000204228bc        0x0 /local/gerum/speech_recognition/external/hannah-tvm/tmp/TGC-VP/fw/bsp/env/start.o
 .rela.text._ZN3tvm7runtime12MinRPCServerINS0_9micro_rpc14MicroIOHandlerENS0_6detail13PageAllocatorEE4ReadI10DLDataTypeEEvPT_
                0x00000000204228bc        0x0 /local/gerum/speech_recognition/external/hannah-tvm/tmp/TGC-VP/fw/bsp/env/start.o
 .rela.text._ZN3tvm7runtime12MinRPCServerINS0_9micro_rpc14MicroIOHandlerENS0_6detail13PageAllocatorEE10ArenaAllocIxEEPT_i
                0x00000000204228bc        0x0 /local/gerum/speech_recognition/external/hannah-tvm/tmp/TGC-VP/fw/bsp/env/start.o
 .rela.text._ZN3tvm7runtime12MinRPCServerINS0_9micro_rpc14MicroIOHandlerENS0_6detail13PageAllocatorEE9ReadArrayIxEEvPT_j
                0x00000000204228bc        0x0 /local/gerum/speech_recognition/external/hannah-tvm/tmp/TGC-VP/fw/bsp/env/start.o
 .rela.text._ZN3tvm7runtime12MinRPCServerINS0_9micro_rpc14MicroIOHandlerENS0_6detail13PageAllocatorEE10ArenaAllocIhEEPT_i
                0x00000000204228bc        0x0 /local/gerum/speech_recognition/external/hannah-tvm/tmp/TGC-VP/fw/bsp/env/start.o
 .rela.text._ZN3tvm7runtime12MinRPCServerINS0_9micro_rpc14MicroIOHandlerENS0_6detail13PageAllocatorEE5WriteIyEEvRKT_
                0x00000000204228bc        0x0 /local/gerum/speech_recognition/external/hannah-tvm/tmp/TGC-VP/fw/bsp/env/start.o
 .rela.text._ZN3tvm7runtime12MinRPCServerINS0_9micro_rpc14MicroIOHandlerENS0_6detail13PageAllocatorEE5WriteINS0_7RPCCodeEEEvRKT_
                0x00000000204228bc        0x0 /local/gerum/speech_recognition/external/hannah-tvm/tmp/TGC-VP/fw/bsp/env/start.o
 .rela.text._ZN3tvm7runtime12MinRPCServerINS0_9micro_rpc14MicroIOHandlerENS0_6detail13PageAllocatorEE10WriteArrayIhEEvPT_j
                0x00000000204228bc        0x0 /local/gerum/speech_recognition/external/hannah-tvm/tmp/TGC-VP/fw/bsp/env/start.o
 .rela.text._ZN3tvm7runtime12MinRPCServerINS0_9micro_rpc14MicroIOHandlerENS0_6detail13PageAllocatorEE9ReadArrayIhEEvPT_j
                0x00000000204228bc        0x0 /local/gerum/speech_recognition/external/hannah-tvm/tmp/TGC-VP/fw/bsp/env/start.o
 .rela.text._ZN3tvm7runtime6detail13PageAllocatorINS0_9micro_rpc14MicroIOHandlerEE10deallocateEPNS_7support15ArenaPageHeaderE
                0x00000000204228bc        0x0 /local/gerum/speech_recognition/external/hannah-tvm/tmp/TGC-VP/fw/bsp/env/start.o
 .rela.text._ZN3tvm7runtime12RPCReference13RecvPackedSeqINS0_12MinRPCServerINS0_9micro_rpc14MicroIOHandlerENS0_6detail13PageAllocatorEEEEEvPP8TVMValuePPiSC_PT_
                0x00000000204228bc        0x0 /local/gerum/speech_recognition/external/hannah-tvm/tmp/TGC-VP/fw/bsp/env/start.o
 .rela.text._ZN3tvm7runtime12MinRPCServerINS0_9micro_rpc14MicroIOHandlerENS0_6detail13PageAllocatorEE12ReturnHandleEPv
                0x00000000204228bc        0x0 /local/gerum/speech_recognition/external/hannah-tvm/tmp/TGC-VP/fw/bsp/env/start.o
 .rela.text._ZN3tvm7runtime12RPCReference15ReturnExceptionINS0_12MinRPCServerINS0_9micro_rpc14MicroIOHandlerENS0_6detail13PageAllocatorEEEEEvPKcPT_
                0x00000000204228bc        0x0 /local/gerum/speech_recognition/external/hannah-tvm/tmp/TGC-VP/fw/bsp/env/start.o
 .rela.text._ZN3tvm7runtime12RPCReference15ReturnPackedSeqINS0_12MinRPCServerINS0_9micro_rpc14MicroIOHandlerENS0_6detail13PageAllocatorEEEEEvPK8TVMValuePKiiPT_
                0x00000000204228bc        0x0 /local/gerum/speech_recognition/external/hannah-tvm/tmp/TGC-VP/fw/bsp/env/start.o
 .rela.text._ZN3tvm7support12GenericArenaINS_7runtime6detail13PageAllocatorINS2_9micro_rpc14MicroIOHandlerEEEE9allocate_IcEEPT_i
                0x00000000204228bc        0x0 /local/gerum/speech_recognition/external/hannah-tvm/tmp/TGC-VP/fw/bsp/env/start.o
 .rela.text._ZN3tvm7runtime12MinRPCServerINS0_9micro_rpc14MicroIOHandlerENS0_6detail13PageAllocatorEE5WriteIlEEvRKT_
                0x00000000204228bc        0x0 /local/gerum/speech_recognition/external/hannah-tvm/tmp/TGC-VP/fw/bsp/env/start.o
 .rela.text._ZN3tvm7support12GenericArenaINS_7runtime6detail13PageAllocatorINS2_9micro_rpc14MicroIOHandlerEEEE9allocate_I8DLTensorEEPT_i
                0x00000000204228bc        0x0 /local/gerum/speech_recognition/external/hannah-tvm/tmp/TGC-VP/fw/bsp/env/start.o
 .rela.text._ZN3tvm7support12GenericArenaINS_7runtime6detail13PageAllocatorINS2_9micro_rpc14MicroIOHandlerEEEE9allocate_IxEEPT_i
                0x00000000204228bc        0x0 /local/gerum/speech_recognition/external/hannah-tvm/tmp/TGC-VP/fw/bsp/env/start.o
 .rela.text._ZN3tvm7support12GenericArenaINS_7runtime6detail13PageAllocatorINS2_9micro_rpc14MicroIOHandlerEEEE9allocate_IhEEPT_i
                0x00000000204228bc        0x0 /local/gerum/speech_recognition/external/hannah-tvm/tmp/TGC-VP/fw/bsp/env/start.o
 .rela.text._ZN3tvm7runtime12MinRPCServerINS0_9micro_rpc14MicroIOHandlerENS0_6detail13PageAllocatorEE13WriteRawBytesEPKvj
                0x00000000204228bc        0x0 /local/gerum/speech_recognition/external/hannah-tvm/tmp/TGC-VP/fw/bsp/env/start.o
 .rela.text._ZN3tvm7runtime12MinRPCServerINS0_9micro_rpc14MicroIOHandlerENS0_6detail13PageAllocatorEE10ArenaAllocI8TVMValueEEPT_i
                0x00000000204228bc        0x0 /local/gerum/speech_recognition/external/hannah-tvm/tmp/TGC-VP/fw/bsp/env/start.o
 .rela.text._ZN3tvm7runtime12MinRPCServerINS0_9micro_rpc14MicroIOHandlerENS0_6detail13PageAllocatorEE10ArenaAllocIiEEPT_i
                0x00000000204228bc        0x0 /local/gerum/speech_recognition/external/hannah-tvm/tmp/TGC-VP/fw/bsp/env/start.o
 .rela.text._ZN3tvm7runtime12MinRPCServerINS0_9micro_rpc14MicroIOHandlerENS0_6detail13PageAllocatorEE9ReadArrayIiEEvPT_j
                0x00000000204228bc        0x0 /local/gerum/speech_recognition/external/hannah-tvm/tmp/TGC-VP/fw/bsp/env/start.o
 .rela.text._ZN3tvm7runtime12MinRPCServerINS0_9micro_rpc14MicroIOHandlerENS0_6detail13PageAllocatorEE4ReadIxEEvPT_
                0x00000000204228bc        0x0 /local/gerum/speech_recognition/external/hannah-tvm/tmp/TGC-VP/fw/bsp/env/start.o
 .rela.text._ZN3tvm7runtime12MinRPCServerINS0_9micro_rpc14MicroIOHandlerENS0_6detail13PageAllocatorEE4ReadIlEEvPT_
                0x00000000204228bc        0x0 /local/gerum/speech_recognition/external/hannah-tvm/tmp/TGC-VP/fw/bsp/env/start.o
 .rela.text._ZN3tvm7runtime12MinRPCServerINS0_9micro_rpc14MicroIOHandlerENS0_6detail13PageAllocatorEE10ArenaAllocI12TVMByteArrayEEPT_i
                0x00000000204228bc        0x0 /local/gerum/speech_recognition/external/hannah-tvm/tmp/TGC-VP/fw/bsp/env/start.o
 .rela.text._ZN3tvm7runtime12RPCReference15ReceiveDLTensorIPNS0_12MinRPCServerINS0_9micro_rpc14MicroIOHandlerENS0_6detail13PageAllocatorEEEEEP8DLTensorT_
                0x00000000204228bc        0x0 /local/gerum/speech_recognition/external/hannah-tvm/tmp/TGC-VP/fw/bsp/env/start.o
 .rela.text._ZN3tvm7runtime12MinRPCServerINS0_9micro_rpc14MicroIOHandlerENS0_6detail13PageAllocatorEE12MessageStartEy
                0x00000000204228bc        0x0 /local/gerum/speech_recognition/external/hannah-tvm/tmp/TGC-VP/fw/bsp/env/start.o
 .rela.text._ZN3tvm7runtime12MinRPCServerINS0_9micro_rpc14MicroIOHandlerENS0_6detail13PageAllocatorEE10WriteArrayIKcEEvPT_j
                0x00000000204228bc        0x0 /local/gerum/speech_recognition/external/hannah-tvm/tmp/TGC-VP/fw/bsp/env/start.o
 .rela.text._ZN3tvm7runtime12MinRPCServerINS0_9micro_rpc14MicroIOHandlerENS0_6detail13PageAllocatorEE11MessageDoneEv
                0x00000000204228bc        0x0 /local/gerum/speech_recognition/external/hannah-tvm/tmp/TGC-VP/fw/bsp/env/start.o
 .rela.text._ZN3tvm7runtime12RPCReference20PackedSeqGetNumBytesINS0_12MinRPCServerINS0_9micro_rpc14MicroIOHandlerENS0_6detail13PageAllocatorEEEEEyPK8TVMValuePKiibPT_
                0x00000000204228bc        0x0 /local/gerum/speech_recognition/external/hannah-tvm/tmp/TGC-VP/fw/bsp/env/start.o
 .rela.text._ZN3tvm7runtime12RPCReference13SendPackedSeqINS0_12MinRPCServerINS0_9micro_rpc14MicroIOHandlerENS0_6detail13PageAllocatorEEEEEvPK8TVMValuePKiibPT_
                0x00000000204228bc        0x0 /local/gerum/speech_recognition/external/hannah-tvm/tmp/TGC-VP/fw/bsp/env/start.o
 .rela.text._ZN3tvm7support12GenericArenaINS_7runtime6detail13PageAllocatorINS2_9micro_rpc14MicroIOHandlerEEEE5AllocEjj
                0x00000000204228bc        0x0 /local/gerum/speech_recognition/external/hannah-tvm/tmp/TGC-VP/fw/bsp/env/start.o
 .rela.text._ZN3tvm7support12GenericArenaINS_7runtime6detail13PageAllocatorINS2_9micro_rpc14MicroIOHandlerEEEE9allocate_I8TVMValueEEPT_i
                0x00000000204228bc        0x0 /local/gerum/speech_recognition/external/hannah-tvm/tmp/TGC-VP/fw/bsp/env/start.o
 .rela.text._ZN3tvm7support12GenericArenaINS_7runtime6detail13PageAllocatorINS2_9micro_rpc14MicroIOHandlerEEEE9allocate_IiEEPT_i
                0x00000000204228bc        0x0 /local/gerum/speech_recognition/external/hannah-tvm/tmp/TGC-VP/fw/bsp/env/start.o
 .rela.text._ZN3tvm7support12GenericArenaINS_7runtime6detail13PageAllocatorINS2_9micro_rpc14MicroIOHandlerEEEE9allocate_I12TVMByteArrayEEPT_i
                0x00000000204228bc        0x0 /local/gerum/speech_recognition/external/hannah-tvm/tmp/TGC-VP/fw/bsp/env/start.o
 .rela.text._ZN3tvm7runtime12RPCReference13SendPackedSeqINS1_23PackedSeqNumBytesGetterINS0_12MinRPCServerINS0_9micro_rpc14MicroIOHandlerENS0_6detail13PageAllocatorEEEEEEEvPK8TVMValuePKiibPT_
                0x00000000204228bc        0x0 /local/gerum/speech_recognition/external/hannah-tvm/tmp/TGC-VP/fw/bsp/env/start.o
 .rela.text._ZN3tvm7runtime12MinRPCServerINS0_9micro_rpc14MicroIOHandlerENS0_6detail13PageAllocatorEE5WriteIiEEvRKT_
                0x00000000204228bc        0x0 /local/gerum/speech_recognition/external/hannah-tvm/tmp/TGC-VP/fw/bsp/env/start.o
 .rela.text._ZN3tvm7runtime12MinRPCServerINS0_9micro_rpc14MicroIOHandlerENS0_6detail13PageAllocatorEE10WriteArrayIKiEEvPT_j
                0x00000000204228bc        0x0 /local/gerum/speech_recognition/external/hannah-tvm/tmp/TGC-VP/fw/bsp/env/start.o
 .rela.text._ZN3tvm7runtime12MinRPCServerINS0_9micro_rpc14MicroIOHandlerENS0_6detail13PageAllocatorEE5WriteIxEEvRKT_
                0x00000000204228bc        0x0 /local/gerum/speech_recognition/external/hannah-tvm/tmp/TGC-VP/fw/bsp/env/start.o
 .rela.text._ZN3tvm7runtime12MinRPCServerINS0_9micro_rpc14MicroIOHandlerENS0_6detail13PageAllocatorEE5WriteI10DLDataTypeEEvRKT_
                0x00000000204228bc        0x0 /local/gerum/speech_recognition/external/hannah-tvm/tmp/TGC-VP/fw/bsp/env/start.o
 .rela.text._ZN3tvm7runtime12MinRPCServerINS0_9micro_rpc14MicroIOHandlerENS0_6detail13PageAllocatorEE5WriteI8DLDeviceEEvRKT_
                0x00000000204228bc        0x0 /local/gerum/speech_recognition/external/hannah-tvm/tmp/TGC-VP/fw/bsp/env/start.o
 .rela.text._ZN3tvm7runtime12RPCReference12SendDLTensorIPNS0_12MinRPCServerINS0_9micro_rpc14MicroIOHandlerENS0_6detail13PageAllocatorEEEEEvT_P8DLTensor
                0x00000000204228bc        0x0 /local/gerum/speech_recognition/external/hannah-tvm/tmp/TGC-VP/fw/bsp/env/start.o
 .rela.text._ZN3tvm7support12GenericArenaINS_7runtime6detail13PageAllocatorINS2_9micro_rpc14MicroIOHandlerEEEE10UpperAlignEjj
                0x00000000204228bc        0x0 /local/gerum/speech_recognition/external/hannah-tvm/tmp/TGC-VP/fw/bsp/env/start.o
 .rela.text._ZN3tvm7runtime12RPCReference23PackedSeqNumBytesGetterINS0_12MinRPCServerINS0_9micro_rpc14MicroIOHandlerENS0_6detail13PageAllocatorEEEE10ThrowErrorENS0_15RPCServerStatusE
                0x00000000204228bc        0x0 /local/gerum/speech_recognition/external/hannah-tvm/tmp/TGC-VP/fw/bsp/env/start.o
 .rela.text._ZN3tvm7runtime12RPCReference12SendDLTensorIPNS1_23PackedSeqNumBytesGetterINS0_12MinRPCServerINS0_9micro_rpc14MicroIOHandlerENS0_6detail13PageAllocatorEEEEEEEvT_P8DLTensor
                0x00000000204228bc        0x0 /local/gerum/speech_recognition/external/hannah-tvm/tmp/TGC-VP/fw/bsp/env/start.o
 .rela.text._ZN3tvm7runtime12MinRPCServerINS0_9micro_rpc14MicroIOHandlerENS0_6detail13PageAllocatorEE10WriteArrayIxEEvPT_j
                0x00000000204228bc        0x0 /local/gerum/speech_recognition/external/hannah-tvm/tmp/TGC-VP/fw/bsp/env/start.o
 .rela.rodata._ZTVN3tvm7runtime9micro_rpc17SerialWriteStreamE
                0x00000000204228bc        0x0 /local/gerum/speech_recognition/external/hannah-tvm/tmp/TGC-VP/fw/bsp/env/start.o
 .rela.sdata    0x00000000204228bc        0x0 /local/gerum/speech_recognition/external/hannah-tvm/tmp/TGC-VP/fw/bsp/env/start.o
 .rela.data     0x00000000204228bc        0x0 /local/gerum/speech_recognition/external/hannah-tvm/tmp/TGC-VP/fw/bsp/env/start.o
                0x00000000204228bc                . = ALIGN (0x4)

.preinit_array  0x00000000204228bc        0x0
                0x00000000204228bc                PROVIDE (__preinit_array_start, .)
 *(.preinit_array)
                0x00000000204228bc                PROVIDE (__preinit_array_end, .)

.init_array     0x00000000204228bc        0x0
                0x00000000204228bc                PROVIDE (__init_array_start, .)
 *(SORT(.init_array.*) SORT(.ctors.*))
 *(.init_array EXCLUDE_FILE(*crtend?.o *crtend.o *crtbegin?.o *crtbegin.o) .ctors)
                0x00000000204228bc                PROVIDE (__init_array_end, .)

.fini_array     0x00000000204228bc        0x0
                0x00000000204228bc                PROVIDE (__fini_array_start, .)
 *(SORT(.fini_array.*) SORT(.dtors.*))
 *(.fini_array EXCLUDE_FILE(*crtend?.o *crtend.o *crtbegin?.o *crtbegin.o) .dtors)
                0x00000000204228bc                PROVIDE (__fini_array_end, .)

.ctors
 *crtbegin.o(.ctors)
 *crtbegin?.o(.ctors)
 *(EXCLUDE_FILE(*crtend?.o *crtend.o) .ctors)
 *(SORT(.ctors.*))
 *(.ctors)

.dtors
 *crtbegin.o(.dtors)
 *crtbegin?.o(.dtors)
 *(EXCLUDE_FILE(*crtend?.o *crtend.o) .dtors)
 *(SORT(.dtors.*))
 *(.dtors)

.lalign         0x00000000204228bc        0x0
                0x00000000204228bc                . = ALIGN (0x4)
                0x00000000204228bc                PROVIDE (_data_lma, .)

.dalign         0x0000000080000000        0x0 load address 0x00000000204228bc
                0x0000000080000000                . = ALIGN (0x4)
                0x0000000080000000                PROVIDE (_data, .)

.data           0x0000000080000000      0xa60 load address 0x00000000204228bc
 *(.data .data.*)
 .data          0x0000000080000000        0x0 /local/gerum/speech_recognition/external/hannah-tvm/tmp/TGC-VP/fw/bsp/env/start.o
 .data          0x0000000080000000        0x0 /local/gerum/speech_recognition/external/hannah-tvm/tmp/TGC-VP/fw/bsp/env/entry.o
 .data          0x0000000080000000        0x0 circular_buffer.o
 .data          0x0000000080000000        0x0 cxx_support.o
 .data          0x0000000080000000        0x0 main.o
 .data          0x0000000080000000        0x0 crt/src/runtime/crt/common/crt_backend_api.o
 .data          0x0000000080000000        0x0 crt/src/runtime/crt/common/crt_runtime_api.o
 .data          0x0000000080000000        0x0 crt/src/runtime/crt/common/func_registry.o
 .data          0x0000000080000000        0x0 crt/src/runtime/crt/common/ndarray.o
 .data          0x0000000080000000        0x0 crt/src/runtime/crt/common/packed_func.o
 .data          0x0000000080000000        0x0 crt/src/runtime/crt/graph_executor/graph_executor.o
 .data          0x0000000080000000        0x0 crt/src/runtime/crt/graph_executor/load_json.o
 .data          0x0000000080000000        0x0 crt/src/runtime/crt/graph_executor_module/graph_executor_module.o
 .data          0x0000000080000000        0x0 crt/src/runtime/crt/memory/page_allocator.o
 .data          0x0000000080000000        0x0 crt/src/runtime/crt/memory/stack_allocator.o
 .data          0x0000000080000000        0x0 crt/src/runtime/crt/microtvm_rpc_common/crcccitt.o
 .data          0x0000000080000000        0x0 /local/gerum/speech_recognition/external/hannah-tvm/tmp/TGC-VP/fw/bsp/env/tgfs-vp/init.o
 .data          0x0000000080000000        0x0 delete.o
 .data          0x0000000080000000        0x0 crt/src/runtime/crt/microtvm_rpc_common/frame_buffer.o
 .data          0x0000000080000000        0x0 crt/src/runtime/crt/microtvm_rpc_common/framing.o
 .data          0x0000000080000000        0x0 crt/src/runtime/crt/microtvm_rpc_common/session.o
 .data          0x0000000080000000        0x0 crt/src/runtime/crt/microtvm_rpc_common/write_stream.o
 .data          0x0000000080000000        0x0 crt/src/runtime/crt/microtvm_rpc_server/rpc_server.o
 .data          0x0000000080000000        0x0 ./libwrap.a(malloc.o)
 .data          0x0000000080000000        0x0 ./libwrap.a(write.o)
 .data          0x0000000080000000        0x0 ./libwrap.a(isatty.o)
 .data          0x0000000080000000        0x0 ./libwrap.a(sbrk.o)
 .data          0x0000000080000000        0x0 ./libwrap.a(_exit.o)
 .data          0x0000000080000000        0x0 ./libwrap.a(puts.o)
 .data          0x0000000080000000        0x0 ./libwrap.a(write_hex.o)
 .data          0x0000000080000000        0x0 ./libwrap.a(printf.o)
 .data          0x0000000080000000        0x0 /opt/pulp-riscv-gcc/bin/../lib/gcc/riscv32-unknown-elf/7.1.1/../../../../riscv32-unknown-elf/lib/libc.a(lib_a-assert.o)
 .data          0x0000000080000000        0x0 /opt/pulp-riscv-gcc/bin/../lib/gcc/riscv32-unknown-elf/7.1.1/../../../../riscv32-unknown-elf/lib/libc.a(lib_a-atexit.o)
 .data          0x0000000080000000        0x0 /opt/pulp-riscv-gcc/bin/../lib/gcc/riscv32-unknown-elf/7.1.1/../../../../riscv32-unknown-elf/lib/libc.a(lib_a-exit.o)
 .data          0x0000000080000000        0x0 /opt/pulp-riscv-gcc/bin/../lib/gcc/riscv32-unknown-elf/7.1.1/../../../../riscv32-unknown-elf/lib/libc.a(lib_a-fini.o)
 .data          0x0000000080000000        0x0 /opt/pulp-riscv-gcc/bin/../lib/gcc/riscv32-unknown-elf/7.1.1/../../../../riscv32-unknown-elf/lib/libc.a(lib_a-fiprintf.o)
 .data          0x0000000080000000        0x0 /opt/pulp-riscv-gcc/bin/../lib/gcc/riscv32-unknown-elf/7.1.1/../../../../riscv32-unknown-elf/lib/libc.a(lib_a-fprintf.o)
 .data          0x0000000080000000        0x0 /opt/pulp-riscv-gcc/bin/../lib/gcc/riscv32-unknown-elf/7.1.1/../../../../riscv32-unknown-elf/lib/libc.a(lib_a-fwrite.o)
 .data          0x0000000080000000      0x428 /opt/pulp-riscv-gcc/bin/../lib/gcc/riscv32-unknown-elf/7.1.1/../../../../riscv32-unknown-elf/lib/libc.a(lib_a-impure.o)
 .data          0x0000000080000428        0x0 /opt/pulp-riscv-gcc/bin/../lib/gcc/riscv32-unknown-elf/7.1.1/../../../../riscv32-unknown-elf/lib/libc.a(lib_a-init.o)
 .data          0x0000000080000428      0x16c /opt/pulp-riscv-gcc/bin/../lib/gcc/riscv32-unknown-elf/7.1.1/../../../../riscv32-unknown-elf/lib/libc.a(lib_a-locale.o)
                0x0000000080000428                __global_locale
 .data          0x0000000080000594        0x0 /opt/pulp-riscv-gcc/bin/../lib/gcc/riscv32-unknown-elf/7.1.1/../../../../riscv32-unknown-elf/lib/libc.a(lib_a-mbtowc_r.o)
 .data          0x0000000080000594        0x0 /opt/pulp-riscv-gcc/bin/../lib/gcc/riscv32-unknown-elf/7.1.1/../../../../riscv32-unknown-elf/lib/libc.a(lib_a-memcpy.o)
 .data          0x0000000080000594        0x0 /opt/pulp-riscv-gcc/bin/../lib/gcc/riscv32-unknown-elf/7.1.1/../../../../riscv32-unknown-elf/lib/libc.a(lib_a-memset.o)
 .data          0x0000000080000594        0x0 /opt/pulp-riscv-gcc/bin/../lib/gcc/riscv32-unknown-elf/7.1.1/../../../../riscv32-unknown-elf/lib/libc.a(lib_a-snprintf.o)
 .data          0x0000000080000594        0x0 /opt/pulp-riscv-gcc/bin/../lib/gcc/riscv32-unknown-elf/7.1.1/../../../../riscv32-unknown-elf/lib/libc.a(lib_a-strcmp.o)
 .data          0x0000000080000594        0x0 /opt/pulp-riscv-gcc/bin/../lib/gcc/riscv32-unknown-elf/7.1.1/../../../../riscv32-unknown-elf/lib/libc.a(lib_a-strlen.o)
 .data          0x0000000080000594        0x0 /opt/pulp-riscv-gcc/bin/../lib/gcc/riscv32-unknown-elf/7.1.1/../../../../riscv32-unknown-elf/lib/libc.a(lib_a-strncmp.o)
 .data          0x0000000080000594        0x0 /opt/pulp-riscv-gcc/bin/../lib/gcc/riscv32-unknown-elf/7.1.1/../../../../riscv32-unknown-elf/lib/libc.a(lib_a-strncpy.o)
 .data          0x0000000080000594        0x0 /opt/pulp-riscv-gcc/bin/../lib/gcc/riscv32-unknown-elf/7.1.1/../../../../riscv32-unknown-elf/lib/libc.a(lib_a-strnlen.o)
 .data          0x0000000080000594        0x0 /opt/pulp-riscv-gcc/bin/../lib/gcc/riscv32-unknown-elf/7.1.1/../../../../riscv32-unknown-elf/lib/libc.a(lib_a-strtol.o)
 .data          0x0000000080000594        0x0 /opt/pulp-riscv-gcc/bin/../lib/gcc/riscv32-unknown-elf/7.1.1/../../../../riscv32-unknown-elf/lib/libc.a(lib_a-strtoul.o)
 .data          0x0000000080000594        0x0 /opt/pulp-riscv-gcc/bin/../lib/gcc/riscv32-unknown-elf/7.1.1/../../../../riscv32-unknown-elf/lib/libc.a(lib_a-svfprintf.o)
 .data          0x0000000080000594        0x0 /opt/pulp-riscv-gcc/bin/../lib/gcc/riscv32-unknown-elf/7.1.1/../../../../riscv32-unknown-elf/lib/libc.a(lib_a-vfiprintf.o)
 .data          0x0000000080000594        0x0 /opt/pulp-riscv-gcc/bin/../lib/gcc/riscv32-unknown-elf/7.1.1/../../../../riscv32-unknown-elf/lib/libc.a(lib_a-vfprintf.o)
 .data          0x0000000080000594        0x0 /opt/pulp-riscv-gcc/bin/../lib/gcc/riscv32-unknown-elf/7.1.1/../../../../riscv32-unknown-elf/lib/libc.a(lib_a-vsnprintf.o)
 .data          0x0000000080000594        0x0 /opt/pulp-riscv-gcc/bin/../lib/gcc/riscv32-unknown-elf/7.1.1/../../../../riscv32-unknown-elf/lib/libc.a(lib_a-wctomb_r.o)
 .data          0x0000000080000594        0x0 /opt/pulp-riscv-gcc/bin/../lib/gcc/riscv32-unknown-elf/7.1.1/../../../../riscv32-unknown-elf/lib/libc.a(lib_a-wsetup.o)
 .data          0x0000000080000594        0x0 /opt/pulp-riscv-gcc/bin/../lib/gcc/riscv32-unknown-elf/7.1.1/../../../../riscv32-unknown-elf/lib/libc.a(lib_a-abort.o)
 .data          0x0000000080000594        0x0 /opt/pulp-riscv-gcc/bin/../lib/gcc/riscv32-unknown-elf/7.1.1/../../../../riscv32-unknown-elf/lib/libc.a(lib_a-__atexit.o)
 .data          0x0000000080000594        0x0 /opt/pulp-riscv-gcc/bin/../lib/gcc/riscv32-unknown-elf/7.1.1/../../../../riscv32-unknown-elf/lib/libc.a(lib_a-__call_atexit.o)
 .data          0x0000000080000594        0x0 /opt/pulp-riscv-gcc/bin/../lib/gcc/riscv32-unknown-elf/7.1.1/../../../../riscv32-unknown-elf/lib/libc.a(lib_a-ctype_.o)
 .data          0x0000000080000594        0x0 /opt/pulp-riscv-gcc/bin/../lib/gcc/riscv32-unknown-elf/7.1.1/../../../../riscv32-unknown-elf/lib/libc.a(lib_a-fflush.o)
 .data          0x0000000080000594        0x0 /opt/pulp-riscv-gcc/bin/../lib/gcc/riscv32-unknown-elf/7.1.1/../../../../riscv32-unknown-elf/lib/libc.a(lib_a-findfp.o)
 .data          0x0000000080000594        0x0 /opt/pulp-riscv-gcc/bin/../lib/gcc/riscv32-unknown-elf/7.1.1/../../../../riscv32-unknown-elf/lib/libc.a(lib_a-fputwc.o)
 .data          0x0000000080000594        0x0 /opt/pulp-riscv-gcc/bin/../lib/gcc/riscv32-unknown-elf/7.1.1/../../../../riscv32-unknown-elf/lib/libc.a(lib_a-freer.o)
 .data          0x0000000080000594        0x0 /opt/pulp-riscv-gcc/bin/../lib/gcc/riscv32-unknown-elf/7.1.1/../../../../riscv32-unknown-elf/lib/libc.a(lib_a-fvwrite.o)
 .data          0x0000000080000594        0x0 /opt/pulp-riscv-gcc/bin/../lib/gcc/riscv32-unknown-elf/7.1.1/../../../../riscv32-unknown-elf/lib/libc.a(lib_a-fwalk.o)
 .data          0x0000000080000594        0x0 /opt/pulp-riscv-gcc/bin/../lib/gcc/riscv32-unknown-elf/7.1.1/../../../../riscv32-unknown-elf/lib/libc.a(lib_a-ldtoa.o)
 .data          0x0000000080000594        0x0 /opt/pulp-riscv-gcc/bin/../lib/gcc/riscv32-unknown-elf/7.1.1/../../../../riscv32-unknown-elf/lib/libc.a(lib_a-localeconv.o)
 .data          0x0000000080000594        0x0 /opt/pulp-riscv-gcc/bin/../lib/gcc/riscv32-unknown-elf/7.1.1/../../../../riscv32-unknown-elf/lib/libc.a(lib_a-makebuf.o)
 .data          0x0000000080000594      0x408 /opt/pulp-riscv-gcc/bin/../lib/gcc/riscv32-unknown-elf/7.1.1/../../../../riscv32-unknown-elf/lib/libc.a(lib_a-mallocr.o)
                0x0000000080000594                __malloc_av_
 .data          0x000000008000099c        0x0 /opt/pulp-riscv-gcc/bin/../lib/gcc/riscv32-unknown-elf/7.1.1/../../../../riscv32-unknown-elf/lib/libc.a(lib_a-memchr.o)
 .data          0x000000008000099c        0x0 /opt/pulp-riscv-gcc/bin/../lib/gcc/riscv32-unknown-elf/7.1.1/../../../../riscv32-unknown-elf/lib/libc.a(lib_a-memmove.o)
 .data          0x000000008000099c        0x0 /opt/pulp-riscv-gcc/bin/../lib/gcc/riscv32-unknown-elf/7.1.1/../../../../riscv32-unknown-elf/lib/libc.a(lib_a-mlock.o)
 .data          0x000000008000099c        0x0 /opt/pulp-riscv-gcc/bin/../lib/gcc/riscv32-unknown-elf/7.1.1/../../../../riscv32-unknown-elf/lib/libc.a(lib_a-mprec.o)
 .data          0x000000008000099c        0x0 /opt/pulp-riscv-gcc/bin/../lib/gcc/riscv32-unknown-elf/7.1.1/../../../../riscv32-unknown-elf/lib/libc.a(lib_a-reallocr.o)
 .data          0x000000008000099c        0x0 /opt/pulp-riscv-gcc/bin/../lib/gcc/riscv32-unknown-elf/7.1.1/../../../../riscv32-unknown-elf/lib/libc.a(lib_a-sbrkr.o)
 .data          0x000000008000099c        0x0 /opt/pulp-riscv-gcc/bin/../lib/gcc/riscv32-unknown-elf/7.1.1/../../../../riscv32-unknown-elf/lib/libc.a(lib_a-s_frexp.o)
 .data          0x000000008000099c        0x0 /opt/pulp-riscv-gcc/bin/../lib/gcc/riscv32-unknown-elf/7.1.1/../../../../riscv32-unknown-elf/lib/libc.a(lib_a-signal.o)
 .data          0x000000008000099c        0x0 /opt/pulp-riscv-gcc/bin/../lib/gcc/riscv32-unknown-elf/7.1.1/../../../../riscv32-unknown-elf/lib/libc.a(lib_a-signalr.o)
 .data          0x000000008000099c        0x0 /opt/pulp-riscv-gcc/bin/../lib/gcc/riscv32-unknown-elf/7.1.1/../../../../riscv32-unknown-elf/lib/libc.a(lib_a-sprintf.o)
 .data          0x000000008000099c        0x0 /opt/pulp-riscv-gcc/bin/../lib/gcc/riscv32-unknown-elf/7.1.1/../../../../riscv32-unknown-elf/lib/libc.a(lib_a-stdio.o)
 .data          0x000000008000099c        0x0 /opt/pulp-riscv-gcc/bin/../lib/gcc/riscv32-unknown-elf/7.1.1/../../../../riscv32-unknown-elf/lib/libc.a(lib_a-strcpy.o)
 .data          0x000000008000099c        0x0 /opt/pulp-riscv-gcc/bin/../lib/gcc/riscv32-unknown-elf/7.1.1/../../../../riscv32-unknown-elf/lib/libc.a(lib_a-svfiprintf.o)
 .data          0x000000008000099c        0x0 /opt/pulp-riscv-gcc/bin/../lib/gcc/riscv32-unknown-elf/7.1.1/../../../../riscv32-unknown-elf/lib/libc.a(lib_a-wbuf.o)
 .data          0x000000008000099c        0x0 /opt/pulp-riscv-gcc/bin/../lib/gcc/riscv32-unknown-elf/7.1.1/../../../../riscv32-unknown-elf/lib/libc.a(lib_a-wcrtomb.o)
 .data          0x000000008000099c        0x0 /opt/pulp-riscv-gcc/bin/../lib/gcc/riscv32-unknown-elf/7.1.1/../../../../riscv32-unknown-elf/lib/libc.a(lib_a-writer.o)
 .data          0x000000008000099c        0x0 /opt/pulp-riscv-gcc/bin/../lib/gcc/riscv32-unknown-elf/7.1.1/../../../../riscv32-unknown-elf/lib/libc.a(lib_a-callocr.o)
 .data          0x000000008000099c        0x0 /opt/pulp-riscv-gcc/bin/../lib/gcc/riscv32-unknown-elf/7.1.1/../../../../riscv32-unknown-elf/lib/libc.a(lib_a-closer.o)
 .data          0x000000008000099c        0x0 /opt/pulp-riscv-gcc/bin/../lib/gcc/riscv32-unknown-elf/7.1.1/../../../../riscv32-unknown-elf/lib/libc.a(lib_a-fclose.o)
 .data          0x000000008000099c        0x0 /opt/pulp-riscv-gcc/bin/../lib/gcc/riscv32-unknown-elf/7.1.1/../../../../riscv32-unknown-elf/lib/libc.a(lib_a-fstatr.o)
 .data          0x000000008000099c        0x0 /opt/pulp-riscv-gcc/bin/../lib/gcc/riscv32-unknown-elf/7.1.1/../../../../riscv32-unknown-elf/lib/libc.a(lib_a-isattyr.o)
 .data          0x000000008000099c        0x0 /opt/pulp-riscv-gcc/bin/../lib/gcc/riscv32-unknown-elf/7.1.1/../../../../riscv32-unknown-elf/lib/libc.a(lib_a-lseekr.o)
 .data          0x000000008000099c        0x0 /opt/pulp-riscv-gcc/bin/../lib/gcc/riscv32-unknown-elf/7.1.1/../../../../riscv32-unknown-elf/lib/libc.a(lib_a-readr.o)
 .data          0x000000008000099c        0x0 /opt/pulp-riscv-gcc/bin/../lib/gcc/riscv32-unknown-elf/7.1.1/../../../../riscv32-unknown-elf/lib/libc.a(lib_a-reent.o)
 .data          0x000000008000099c        0x0 ./libwrap.a(lseek.o)
 .data          0x000000008000099c        0x0 ./libwrap.a(read.o)
 .data          0x000000008000099c        0x0 ./libwrap.a(fstat.o)
 .data          0x000000008000099c        0x0 ./libwrap.a(close.o)
 .data          0x000000008000099c        0x0 ./libwrap.a(getpid.o)
 .data          0x000000008000099c        0x0 ./libwrap.a(kill.o)
 .data          0x000000008000099c        0x0 /opt/pulp-riscv-gcc/bin/../lib/gcc/riscv32-unknown-elf/7.1.1/libgcc.a(_divdi3.o)
 .data          0x000000008000099c        0x0 /opt/pulp-riscv-gcc/bin/../lib/gcc/riscv32-unknown-elf/7.1.1/libgcc.a(_udivdi3.o)
 .data          0x000000008000099c        0x0 /opt/pulp-riscv-gcc/bin/../lib/gcc/riscv32-unknown-elf/7.1.1/libgcc.a(_umoddi3.o)
 .data          0x000000008000099c        0x0 /opt/pulp-riscv-gcc/bin/../lib/gcc/riscv32-unknown-elf/7.1.1/libgcc.a(adddf3.o)
 .data          0x000000008000099c        0x0 /opt/pulp-riscv-gcc/bin/../lib/gcc/riscv32-unknown-elf/7.1.1/libgcc.a(divdf3.o)
 .data          0x000000008000099c        0x0 /opt/pulp-riscv-gcc/bin/../lib/gcc/riscv32-unknown-elf/7.1.1/libgcc.a(ledf2.o)
 .data          0x000000008000099c        0x0 /opt/pulp-riscv-gcc/bin/../lib/gcc/riscv32-unknown-elf/7.1.1/libgcc.a(muldf3.o)
 .data          0x000000008000099c        0x0 /opt/pulp-riscv-gcc/bin/../lib/gcc/riscv32-unknown-elf/7.1.1/libgcc.a(floatsidf.o)
 .data          0x000000008000099c        0x0 /opt/pulp-riscv-gcc/bin/../lib/gcc/riscv32-unknown-elf/7.1.1/libgcc.a(eqtf2.o)
 .data          0x000000008000099c        0x0 /opt/pulp-riscv-gcc/bin/../lib/gcc/riscv32-unknown-elf/7.1.1/libgcc.a(getf2.o)
 .data          0x000000008000099c        0x0 /opt/pulp-riscv-gcc/bin/../lib/gcc/riscv32-unknown-elf/7.1.1/libgcc.a(letf2.o)
 .data          0x000000008000099c        0x0 /opt/pulp-riscv-gcc/bin/../lib/gcc/riscv32-unknown-elf/7.1.1/libgcc.a(multf3.o)
 .data          0x000000008000099c        0x0 /opt/pulp-riscv-gcc/bin/../lib/gcc/riscv32-unknown-elf/7.1.1/libgcc.a(subtf3.o)
 .data          0x000000008000099c        0x0 /opt/pulp-riscv-gcc/bin/../lib/gcc/riscv32-unknown-elf/7.1.1/libgcc.a(fixtfsi.o)
 .data          0x000000008000099c        0x0 /opt/pulp-riscv-gcc/bin/../lib/gcc/riscv32-unknown-elf/7.1.1/libgcc.a(floatsitf.o)
 .data          0x000000008000099c        0x0 /opt/pulp-riscv-gcc/bin/../lib/gcc/riscv32-unknown-elf/7.1.1/libgcc.a(extenddftf2.o)
 .data          0x000000008000099c        0x0 /opt/pulp-riscv-gcc/bin/../lib/gcc/riscv32-unknown-elf/7.1.1/libgcc.a(trunctfdf2.o)
 .data          0x000000008000099c        0x0 /opt/pulp-riscv-gcc/bin/../lib/gcc/riscv32-unknown-elf/7.1.1/libgcc.a(muldi3.o)
 .data          0x000000008000099c        0x0 /opt/pulp-riscv-gcc/bin/../lib/gcc/riscv32-unknown-elf/7.1.1/libgcc.a(multi3.o)
 .data          0x000000008000099c        0x0 /opt/pulp-riscv-gcc/bin/../lib/gcc/riscv32-unknown-elf/7.1.1/libgcc.a(div.o)
 .data          0x000000008000099c        0x0 /opt/pulp-riscv-gcc/bin/../lib/gcc/riscv32-unknown-elf/7.1.1/libgcc.a(_clz.o)
 .data          0x000000008000099c        0x0 /opt/pulp-riscv-gcc/bin/../lib/gcc/riscv32-unknown-elf/7.1.1/libgcc.a(_clzsi2.o)
 *(.gnu.linkonce.d.*)
                0x00000000800009a0                . = ALIGN (0x8)
 *fill*         0x000000008000099c        0x4
                0x00000000800011a0                PROVIDE (__global_pointer$, (. + 0x800))
 *(.sdata .sdata.*)
 .sdata         0x00000000800009a0       0x20 crt/src/runtime/crt/common/crt_runtime_api.o
 .sdata         0x00000000800009c0        0x8 crt/src/runtime/crt/common/func_registry.o
 .sdata         0x00000000800009c8       0x10 crt/src/runtime/crt/common/ndarray.o
 .sdata         0x00000000800009d8        0x8 crt/src/runtime/crt/common/packed_func.o
 .sdata         0x00000000800009e0       0x18 crt/src/runtime/crt/graph_executor/graph_executor.o
 .sdata         0x00000000800009f8       0x20 crt/src/runtime/crt/graph_executor_module/graph_executor_module.o
 .sdata         0x0000000080000a18       0x18 crt/src/runtime/crt/microtvm_rpc_server/rpc_server.o
 .sdata         0x0000000080000a30        0x4 ./libwrap.a(sbrk.o)
 .sdata         0x0000000080000a34        0x8 /opt/pulp-riscv-gcc/bin/../lib/gcc/riscv32-unknown-elf/7.1.1/../../../../riscv32-unknown-elf/lib/libc.a(lib_a-impure.o)
                0x0000000080000a34                _global_impure_ptr
                0x0000000080000a38                _impure_ptr
 .sdata         0x0000000080000a3c        0x8 /opt/pulp-riscv-gcc/bin/../lib/gcc/riscv32-unknown-elf/7.1.1/../../../../riscv32-unknown-elf/lib/libc.a(lib_a-mallocr.o)
                0x0000000080000a3c                __malloc_sbrk_base
                0x0000000080000a40                __malloc_trim_threshold
 *(.gnu.linkonce.s.*)
                0x0000000080000a48                . = ALIGN (0x8)
 *fill*         0x0000000080000a44        0x4
 *(.srodata.cst16)
 *(.srodata.cst8)
 .srodata.cst8  0x0000000080000a48       0x10 /opt/pulp-riscv-gcc/bin/../lib/gcc/riscv32-unknown-elf/7.1.1/../../../../riscv32-unknown-elf/lib/libc.a(lib_a-mprec.o)
 .srodata.cst8  0x0000000080000a58        0x8 /opt/pulp-riscv-gcc/bin/../lib/gcc/riscv32-unknown-elf/7.1.1/../../../../riscv32-unknown-elf/lib/libc.a(lib_a-s_frexp.o)
 *(.srodata.cst4)
 *(.srodata.cst2)
 *(.srodata .srodata.*)
                0x0000000080000a60                . = ALIGN (0x4)
                0x0000000080000a60                PROVIDE (_edata, .)
                [!provide]                        PROVIDE (edata, .)
                [!provide]                        PROVIDE (_fbss, .)
                0x0000000080000a60                PROVIDE (__bss_start, .)

.bss            0x0000000080000a60      0x4a0
 *(.sbss*)
 .sbss          0x0000000080000a60        0x4 /opt/pulp-riscv-gcc/bin/../lib/gcc/riscv32-unknown-elf/7.1.1/../../../../riscv32-unknown-elf/lib/libc.a(lib_a-locale.o)
                0x0000000080000a60                _PathLocale
 .sbss          0x0000000080000a64        0xc /opt/pulp-riscv-gcc/bin/../lib/gcc/riscv32-unknown-elf/7.1.1/../../../../riscv32-unknown-elf/lib/libc.a(lib_a-mallocr.o)
                0x0000000080000a64                __malloc_max_total_mem
                0x0000000080000a68                __malloc_max_sbrked_mem
                0x0000000080000a6c                __malloc_top_pad
 *(.gnu.linkonce.sb.*)
 *(.bss .bss.*)
 .bss           0x0000000080000a70        0x0 /local/gerum/speech_recognition/external/hannah-tvm/tmp/TGC-VP/fw/bsp/env/start.o
 .bss           0x0000000080000a70        0x0 /local/gerum/speech_recognition/external/hannah-tvm/tmp/TGC-VP/fw/bsp/env/entry.o
 .bss           0x0000000080000a70        0x0 circular_buffer.o
 .bss           0x0000000080000a70        0x0 cxx_support.o
 .bss           0x0000000080000a70        0x0 main.o
 .bss           0x0000000080000a70        0x0 crt/src/runtime/crt/common/crt_backend_api.o
 .bss           0x0000000080000a70      0x434 crt/src/runtime/crt/common/crt_runtime_api.o
 .bss           0x0000000080000ea4        0x0 crt/src/runtime/crt/common/func_registry.o
 .bss           0x0000000080000ea4        0x0 crt/src/runtime/crt/common/ndarray.o
 .bss           0x0000000080000ea4        0x0 crt/src/runtime/crt/common/packed_func.o
 .bss           0x0000000080000ea4        0x0 crt/src/runtime/crt/graph_executor/graph_executor.o
 .bss           0x0000000080000ea4        0x0 crt/src/runtime/crt/graph_executor/load_json.o
 .bss           0x0000000080000ea4        0x8 crt/src/runtime/crt/graph_executor_module/graph_executor_module.o
 .bss           0x0000000080000eac        0x0 crt/src/runtime/crt/memory/page_allocator.o
 .bss           0x0000000080000eac        0x0 crt/src/runtime/crt/memory/stack_allocator.o
 .bss           0x0000000080000eac        0x0 crt/src/runtime/crt/microtvm_rpc_common/crcccitt.o
 .bss           0x0000000080000eac        0x4 /local/gerum/speech_recognition/external/hannah-tvm/tmp/TGC-VP/fw/bsp/env/tgfs-vp/init.o
 .bss           0x0000000080000eb0        0x0 delete.o
 .bss           0x0000000080000eb0        0x0 crt/src/runtime/crt/microtvm_rpc_common/frame_buffer.o
 .bss           0x0000000080000eb0        0x0 crt/src/runtime/crt/microtvm_rpc_common/framing.o
 .bss           0x0000000080000eb0        0x0 crt/src/runtime/crt/microtvm_rpc_common/session.o
 .bss           0x0000000080000eb0        0x0 crt/src/runtime/crt/microtvm_rpc_common/write_stream.o
 .bss           0x0000000080000eb0        0xc crt/src/runtime/crt/microtvm_rpc_server/rpc_server.o
 .bss           0x0000000080000ebc        0x0 ./libwrap.a(malloc.o)
 .bss           0x0000000080000ebc        0x0 ./libwrap.a(write.o)
 .bss           0x0000000080000ebc        0x0 ./libwrap.a(isatty.o)
 .bss           0x0000000080000ebc        0x0 ./libwrap.a(sbrk.o)
 .bss           0x0000000080000ebc        0x0 ./libwrap.a(_exit.o)
 .bss           0x0000000080000ebc        0x0 ./libwrap.a(puts.o)
 .bss           0x0000000080000ebc        0x0 ./libwrap.a(write_hex.o)
 .bss           0x0000000080000ebc        0x0 ./libwrap.a(printf.o)
 .bss           0x0000000080000ebc        0x0 /opt/pulp-riscv-gcc/bin/../lib/gcc/riscv32-unknown-elf/7.1.1/../../../../riscv32-unknown-elf/lib/libc.a(lib_a-assert.o)
 .bss           0x0000000080000ebc        0x0 /opt/pulp-riscv-gcc/bin/../lib/gcc/riscv32-unknown-elf/7.1.1/../../../../riscv32-unknown-elf/lib/libc.a(lib_a-atexit.o)
 .bss           0x0000000080000ebc        0x0 /opt/pulp-riscv-gcc/bin/../lib/gcc/riscv32-unknown-elf/7.1.1/../../../../riscv32-unknown-elf/lib/libc.a(lib_a-exit.o)
 .bss           0x0000000080000ebc        0x0 /opt/pulp-riscv-gcc/bin/../lib/gcc/riscv32-unknown-elf/7.1.1/../../../../riscv32-unknown-elf/lib/libc.a(lib_a-fini.o)
 .bss           0x0000000080000ebc        0x0 /opt/pulp-riscv-gcc/bin/../lib/gcc/riscv32-unknown-elf/7.1.1/../../../../riscv32-unknown-elf/lib/libc.a(lib_a-fiprintf.o)
 .bss           0x0000000080000ebc        0x0 /opt/pulp-riscv-gcc/bin/../lib/gcc/riscv32-unknown-elf/7.1.1/../../../../riscv32-unknown-elf/lib/libc.a(lib_a-fprintf.o)
 .bss           0x0000000080000ebc        0x0 /opt/pulp-riscv-gcc/bin/../lib/gcc/riscv32-unknown-elf/7.1.1/../../../../riscv32-unknown-elf/lib/libc.a(lib_a-fwrite.o)
 .bss           0x0000000080000ebc        0x0 /opt/pulp-riscv-gcc/bin/../lib/gcc/riscv32-unknown-elf/7.1.1/../../../../riscv32-unknown-elf/lib/libc.a(lib_a-impure.o)
 .bss           0x0000000080000ebc        0x0 /opt/pulp-riscv-gcc/bin/../lib/gcc/riscv32-unknown-elf/7.1.1/../../../../riscv32-unknown-elf/lib/libc.a(lib_a-init.o)
 .bss           0x0000000080000ebc        0x0 /opt/pulp-riscv-gcc/bin/../lib/gcc/riscv32-unknown-elf/7.1.1/../../../../riscv32-unknown-elf/lib/libc.a(lib_a-locale.o)
 .bss           0x0000000080000ebc        0x0 /opt/pulp-riscv-gcc/bin/../lib/gcc/riscv32-unknown-elf/7.1.1/../../../../riscv32-unknown-elf/lib/libc.a(lib_a-mbtowc_r.o)
 .bss           0x0000000080000ebc        0x0 /opt/pulp-riscv-gcc/bin/../lib/gcc/riscv32-unknown-elf/7.1.1/../../../../riscv32-unknown-elf/lib/libc.a(lib_a-memcpy.o)
 .bss           0x0000000080000ebc        0x0 /opt/pulp-riscv-gcc/bin/../lib/gcc/riscv32-unknown-elf/7.1.1/../../../../riscv32-unknown-elf/lib/libc.a(lib_a-memset.o)
 .bss           0x0000000080000ebc        0x0 /opt/pulp-riscv-gcc/bin/../lib/gcc/riscv32-unknown-elf/7.1.1/../../../../riscv32-unknown-elf/lib/libc.a(lib_a-snprintf.o)
 .bss           0x0000000080000ebc        0x0 /opt/pulp-riscv-gcc/bin/../lib/gcc/riscv32-unknown-elf/7.1.1/../../../../riscv32-unknown-elf/lib/libc.a(lib_a-strcmp.o)
 .bss           0x0000000080000ebc        0x0 /opt/pulp-riscv-gcc/bin/../lib/gcc/riscv32-unknown-elf/7.1.1/../../../../riscv32-unknown-elf/lib/libc.a(lib_a-strlen.o)
 .bss           0x0000000080000ebc        0x0 /opt/pulp-riscv-gcc/bin/../lib/gcc/riscv32-unknown-elf/7.1.1/../../../../riscv32-unknown-elf/lib/libc.a(lib_a-strncmp.o)
 .bss           0x0000000080000ebc        0x0 /opt/pulp-riscv-gcc/bin/../lib/gcc/riscv32-unknown-elf/7.1.1/../../../../riscv32-unknown-elf/lib/libc.a(lib_a-strncpy.o)
 .bss           0x0000000080000ebc        0x0 /opt/pulp-riscv-gcc/bin/../lib/gcc/riscv32-unknown-elf/7.1.1/../../../../riscv32-unknown-elf/lib/libc.a(lib_a-strnlen.o)
 .bss           0x0000000080000ebc        0x0 /opt/pulp-riscv-gcc/bin/../lib/gcc/riscv32-unknown-elf/7.1.1/../../../../riscv32-unknown-elf/lib/libc.a(lib_a-strtol.o)
 .bss           0x0000000080000ebc        0x0 /opt/pulp-riscv-gcc/bin/../lib/gcc/riscv32-unknown-elf/7.1.1/../../../../riscv32-unknown-elf/lib/libc.a(lib_a-strtoul.o)
 .bss           0x0000000080000ebc        0x0 /opt/pulp-riscv-gcc/bin/../lib/gcc/riscv32-unknown-elf/7.1.1/../../../../riscv32-unknown-elf/lib/libc.a(lib_a-svfprintf.o)
 .bss           0x0000000080000ebc        0x0 /opt/pulp-riscv-gcc/bin/../lib/gcc/riscv32-unknown-elf/7.1.1/../../../../riscv32-unknown-elf/lib/libc.a(lib_a-vfiprintf.o)
 .bss           0x0000000080000ebc        0x0 /opt/pulp-riscv-gcc/bin/../lib/gcc/riscv32-unknown-elf/7.1.1/../../../../riscv32-unknown-elf/lib/libc.a(lib_a-vfprintf.o)
 .bss           0x0000000080000ebc        0x0 /opt/pulp-riscv-gcc/bin/../lib/gcc/riscv32-unknown-elf/7.1.1/../../../../riscv32-unknown-elf/lib/libc.a(lib_a-vsnprintf.o)
 .bss           0x0000000080000ebc        0x0 /opt/pulp-riscv-gcc/bin/../lib/gcc/riscv32-unknown-elf/7.1.1/../../../../riscv32-unknown-elf/lib/libc.a(lib_a-wctomb_r.o)
 .bss           0x0000000080000ebc        0x0 /opt/pulp-riscv-gcc/bin/../lib/gcc/riscv32-unknown-elf/7.1.1/../../../../riscv32-unknown-elf/lib/libc.a(lib_a-wsetup.o)
 .bss           0x0000000080000ebc        0x0 /opt/pulp-riscv-gcc/bin/../lib/gcc/riscv32-unknown-elf/7.1.1/../../../../riscv32-unknown-elf/lib/libc.a(lib_a-abort.o)
 .bss           0x0000000080000ebc        0x0 /opt/pulp-riscv-gcc/bin/../lib/gcc/riscv32-unknown-elf/7.1.1/../../../../riscv32-unknown-elf/lib/libc.a(lib_a-__atexit.o)
 .bss           0x0000000080000ebc        0x0 /opt/pulp-riscv-gcc/bin/../lib/gcc/riscv32-unknown-elf/7.1.1/../../../../riscv32-unknown-elf/lib/libc.a(lib_a-__call_atexit.o)
 .bss           0x0000000080000ebc        0x0 /opt/pulp-riscv-gcc/bin/../lib/gcc/riscv32-unknown-elf/7.1.1/../../../../riscv32-unknown-elf/lib/libc.a(lib_a-ctype_.o)
 .bss           0x0000000080000ebc        0x0 /opt/pulp-riscv-gcc/bin/../lib/gcc/riscv32-unknown-elf/7.1.1/../../../../riscv32-unknown-elf/lib/libc.a(lib_a-fflush.o)
 .bss           0x0000000080000ebc        0x0 /opt/pulp-riscv-gcc/bin/../lib/gcc/riscv32-unknown-elf/7.1.1/../../../../riscv32-unknown-elf/lib/libc.a(lib_a-findfp.o)
 .bss           0x0000000080000ebc        0x0 /opt/pulp-riscv-gcc/bin/../lib/gcc/riscv32-unknown-elf/7.1.1/../../../../riscv32-unknown-elf/lib/libc.a(lib_a-fputwc.o)
 .bss           0x0000000080000ebc        0x0 /opt/pulp-riscv-gcc/bin/../lib/gcc/riscv32-unknown-elf/7.1.1/../../../../riscv32-unknown-elf/lib/libc.a(lib_a-freer.o)
 .bss           0x0000000080000ebc        0x0 /opt/pulp-riscv-gcc/bin/../lib/gcc/riscv32-unknown-elf/7.1.1/../../../../riscv32-unknown-elf/lib/libc.a(lib_a-fvwrite.o)
 .bss           0x0000000080000ebc        0x0 /opt/pulp-riscv-gcc/bin/../lib/gcc/riscv32-unknown-elf/7.1.1/../../../../riscv32-unknown-elf/lib/libc.a(lib_a-fwalk.o)
 .bss           0x0000000080000ebc        0x0 /opt/pulp-riscv-gcc/bin/../lib/gcc/riscv32-unknown-elf/7.1.1/../../../../riscv32-unknown-elf/lib/libc.a(lib_a-ldtoa.o)
 .bss           0x0000000080000ebc        0x0 /opt/pulp-riscv-gcc/bin/../lib/gcc/riscv32-unknown-elf/7.1.1/../../../../riscv32-unknown-elf/lib/libc.a(lib_a-localeconv.o)
 .bss           0x0000000080000ebc        0x0 /opt/pulp-riscv-gcc/bin/../lib/gcc/riscv32-unknown-elf/7.1.1/../../../../riscv32-unknown-elf/lib/libc.a(lib_a-makebuf.o)
 .bss           0x0000000080000ebc       0x28 /opt/pulp-riscv-gcc/bin/../lib/gcc/riscv32-unknown-elf/7.1.1/../../../../riscv32-unknown-elf/lib/libc.a(lib_a-mallocr.o)
                0x0000000080000ebc                __malloc_current_mallinfo
 .bss           0x0000000080000ee4        0x0 /opt/pulp-riscv-gcc/bin/../lib/gcc/riscv32-unknown-elf/7.1.1/../../../../riscv32-unknown-elf/lib/libc.a(lib_a-memchr.o)
 .bss           0x0000000080000ee4        0x0 /opt/pulp-riscv-gcc/bin/../lib/gcc/riscv32-unknown-elf/7.1.1/../../../../riscv32-unknown-elf/lib/libc.a(lib_a-memmove.o)
 .bss           0x0000000080000ee4        0x0 /opt/pulp-riscv-gcc/bin/../lib/gcc/riscv32-unknown-elf/7.1.1/../../../../riscv32-unknown-elf/lib/libc.a(lib_a-mlock.o)
 .bss           0x0000000080000ee4        0x0 /opt/pulp-riscv-gcc/bin/../lib/gcc/riscv32-unknown-elf/7.1.1/../../../../riscv32-unknown-elf/lib/libc.a(lib_a-mprec.o)
 .bss           0x0000000080000ee4        0x0 /opt/pulp-riscv-gcc/bin/../lib/gcc/riscv32-unknown-elf/7.1.1/../../../../riscv32-unknown-elf/lib/libc.a(lib_a-reallocr.o)
 .bss           0x0000000080000ee4        0x0 /opt/pulp-riscv-gcc/bin/../lib/gcc/riscv32-unknown-elf/7.1.1/../../../../riscv32-unknown-elf/lib/libc.a(lib_a-sbrkr.o)
 .bss           0x0000000080000ee4        0x0 /opt/pulp-riscv-gcc/bin/../lib/gcc/riscv32-unknown-elf/7.1.1/../../../../riscv32-unknown-elf/lib/libc.a(lib_a-s_frexp.o)
 .bss           0x0000000080000ee4        0x0 /opt/pulp-riscv-gcc/bin/../lib/gcc/riscv32-unknown-elf/7.1.1/../../../../riscv32-unknown-elf/lib/libc.a(lib_a-signal.o)
 .bss           0x0000000080000ee4        0x0 /opt/pulp-riscv-gcc/bin/../lib/gcc/riscv32-unknown-elf/7.1.1/../../../../riscv32-unknown-elf/lib/libc.a(lib_a-signalr.o)
 .bss           0x0000000080000ee4        0x0 /opt/pulp-riscv-gcc/bin/../lib/gcc/riscv32-unknown-elf/7.1.1/../../../../riscv32-unknown-elf/lib/libc.a(lib_a-sprintf.o)
 .bss           0x0000000080000ee4        0x0 /opt/pulp-riscv-gcc/bin/../lib/gcc/riscv32-unknown-elf/7.1.1/../../../../riscv32-unknown-elf/lib/libc.a(lib_a-stdio.o)
 .bss           0x0000000080000ee4        0x0 /opt/pulp-riscv-gcc/bin/../lib/gcc/riscv32-unknown-elf/7.1.1/../../../../riscv32-unknown-elf/lib/libc.a(lib_a-strcpy.o)
 .bss           0x0000000080000ee4        0x0 /opt/pulp-riscv-gcc/bin/../lib/gcc/riscv32-unknown-elf/7.1.1/../../../../riscv32-unknown-elf/lib/libc.a(lib_a-svfiprintf.o)
 .bss           0x0000000080000ee4        0x0 /opt/pulp-riscv-gcc/bin/../lib/gcc/riscv32-unknown-elf/7.1.1/../../../../riscv32-unknown-elf/lib/libc.a(lib_a-wbuf.o)
 .bss           0x0000000080000ee4        0x0 /opt/pulp-riscv-gcc/bin/../lib/gcc/riscv32-unknown-elf/7.1.1/../../../../riscv32-unknown-elf/lib/libc.a(lib_a-wcrtomb.o)
 .bss           0x0000000080000ee4        0x0 /opt/pulp-riscv-gcc/bin/../lib/gcc/riscv32-unknown-elf/7.1.1/../../../../riscv32-unknown-elf/lib/libc.a(lib_a-writer.o)
 .bss           0x0000000080000ee4        0x0 /opt/pulp-riscv-gcc/bin/../lib/gcc/riscv32-unknown-elf/7.1.1/../../../../riscv32-unknown-elf/lib/libc.a(lib_a-callocr.o)
 .bss           0x0000000080000ee4        0x0 /opt/pulp-riscv-gcc/bin/../lib/gcc/riscv32-unknown-elf/7.1.1/../../../../riscv32-unknown-elf/lib/libc.a(lib_a-closer.o)
 .bss           0x0000000080000ee4        0x0 /opt/pulp-riscv-gcc/bin/../lib/gcc/riscv32-unknown-elf/7.1.1/../../../../riscv32-unknown-elf/lib/libc.a(lib_a-fclose.o)
 .bss           0x0000000080000ee4        0x0 /opt/pulp-riscv-gcc/bin/../lib/gcc/riscv32-unknown-elf/7.1.1/../../../../riscv32-unknown-elf/lib/libc.a(lib_a-fstatr.o)
 .bss           0x0000000080000ee4        0x0 /opt/pulp-riscv-gcc/bin/../lib/gcc/riscv32-unknown-elf/7.1.1/../../../../riscv32-unknown-elf/lib/libc.a(lib_a-isattyr.o)
 .bss           0x0000000080000ee4        0x0 /opt/pulp-riscv-gcc/bin/../lib/gcc/riscv32-unknown-elf/7.1.1/../../../../riscv32-unknown-elf/lib/libc.a(lib_a-lseekr.o)
 .bss           0x0000000080000ee4        0x0 /opt/pulp-riscv-gcc/bin/../lib/gcc/riscv32-unknown-elf/7.1.1/../../../../riscv32-unknown-elf/lib/libc.a(lib_a-readr.o)
 .bss           0x0000000080000ee4        0x0 /opt/pulp-riscv-gcc/bin/../lib/gcc/riscv32-unknown-elf/7.1.1/../../../../riscv32-unknown-elf/lib/libc.a(lib_a-reent.o)
 .bss           0x0000000080000ee4        0x0 ./libwrap.a(lseek.o)
 .bss           0x0000000080000ee4        0x0 ./libwrap.a(read.o)
 .bss           0x0000000080000ee4        0x0 ./libwrap.a(fstat.o)
 .bss           0x0000000080000ee4        0x0 ./libwrap.a(close.o)
 .bss           0x0000000080000ee4        0x0 ./libwrap.a(getpid.o)
 .bss           0x0000000080000ee4        0x0 ./libwrap.a(kill.o)
 .bss           0x0000000080000ee4        0x0 /opt/pulp-riscv-gcc/bin/../lib/gcc/riscv32-unknown-elf/7.1.1/libgcc.a(_divdi3.o)
 .bss           0x0000000080000ee4        0x0 /opt/pulp-riscv-gcc/bin/../lib/gcc/riscv32-unknown-elf/7.1.1/libgcc.a(_udivdi3.o)
 .bss           0x0000000080000ee4        0x0 /opt/pulp-riscv-gcc/bin/../lib/gcc/riscv32-unknown-elf/7.1.1/libgcc.a(_umoddi3.o)
 .bss           0x0000000080000ee4        0x0 /opt/pulp-riscv-gcc/bin/../lib/gcc/riscv32-unknown-elf/7.1.1/libgcc.a(adddf3.o)
 .bss           0x0000000080000ee4        0x0 /opt/pulp-riscv-gcc/bin/../lib/gcc/riscv32-unknown-elf/7.1.1/libgcc.a(divdf3.o)
 .bss           0x0000000080000ee4        0x0 /opt/pulp-riscv-gcc/bin/../lib/gcc/riscv32-unknown-elf/7.1.1/libgcc.a(ledf2.o)
 .bss           0x0000000080000ee4        0x0 /opt/pulp-riscv-gcc/bin/../lib/gcc/riscv32-unknown-elf/7.1.1/libgcc.a(muldf3.o)
 .bss           0x0000000080000ee4        0x0 /opt/pulp-riscv-gcc/bin/../lib/gcc/riscv32-unknown-elf/7.1.1/libgcc.a(floatsidf.o)
 .bss           0x0000000080000ee4        0x0 /opt/pulp-riscv-gcc/bin/../lib/gcc/riscv32-unknown-elf/7.1.1/libgcc.a(eqtf2.o)
 .bss           0x0000000080000ee4        0x0 /opt/pulp-riscv-gcc/bin/../lib/gcc/riscv32-unknown-elf/7.1.1/libgcc.a(getf2.o)
 .bss           0x0000000080000ee4        0x0 /opt/pulp-riscv-gcc/bin/../lib/gcc/riscv32-unknown-elf/7.1.1/libgcc.a(letf2.o)
 .bss           0x0000000080000ee4        0x0 /opt/pulp-riscv-gcc/bin/../lib/gcc/riscv32-unknown-elf/7.1.1/libgcc.a(multf3.o)
 .bss           0x0000000080000ee4        0x0 /opt/pulp-riscv-gcc/bin/../lib/gcc/riscv32-unknown-elf/7.1.1/libgcc.a(subtf3.o)
 .bss           0x0000000080000ee4        0x0 /opt/pulp-riscv-gcc/bin/../lib/gcc/riscv32-unknown-elf/7.1.1/libgcc.a(fixtfsi.o)
 .bss           0x0000000080000ee4        0x0 /opt/pulp-riscv-gcc/bin/../lib/gcc/riscv32-unknown-elf/7.1.1/libgcc.a(floatsitf.o)
 .bss           0x0000000080000ee4        0x0 /opt/pulp-riscv-gcc/bin/../lib/gcc/riscv32-unknown-elf/7.1.1/libgcc.a(extenddftf2.o)
 .bss           0x0000000080000ee4        0x0 /opt/pulp-riscv-gcc/bin/../lib/gcc/riscv32-unknown-elf/7.1.1/libgcc.a(trunctfdf2.o)
 .bss           0x0000000080000ee4        0x0 /opt/pulp-riscv-gcc/bin/../lib/gcc/riscv32-unknown-elf/7.1.1/libgcc.a(muldi3.o)
 .bss           0x0000000080000ee4        0x0 /opt/pulp-riscv-gcc/bin/../lib/gcc/riscv32-unknown-elf/7.1.1/libgcc.a(multi3.o)
 .bss           0x0000000080000ee4        0x0 /opt/pulp-riscv-gcc/bin/../lib/gcc/riscv32-unknown-elf/7.1.1/libgcc.a(div.o)
 .bss           0x0000000080000ee4        0x0 /opt/pulp-riscv-gcc/bin/../lib/gcc/riscv32-unknown-elf/7.1.1/libgcc.a(_clz.o)
 .bss           0x0000000080000ee4        0x0 /opt/pulp-riscv-gcc/bin/../lib/gcc/riscv32-unknown-elf/7.1.1/libgcc.a(_clzsi2.o)
 *(.gnu.linkonce.b.*)
 *(COMMON)
 COMMON         0x0000000080000ee4       0x10 main.o
                0x0000000080000ee4                serial_buffer_data
 COMMON         0x0000000080000ef4        0x8 crt/src/runtime/crt/common/packed_func.o
                0x0000000080000ef4                g_fexecs
                0x0000000080000ef8                g_fexecs_count
 COMMON         0x0000000080000efc        0x4 /opt/pulp-riscv-gcc/bin/../lib/gcc/riscv32-unknown-elf/7.1.1/../../../../riscv32-unknown-elf/lib/libc.a(lib_a-reent.o)
                0x0000000080000efc                errno
                0x0000000080000f00                . = ALIGN (0x4)
                0x0000000080000f00                . = ALIGN (0x8)
                0x0000000080000f00                PROVIDE (_end, .)
                [!provide]                        PROVIDE (end, .)

.stack          0x0000000080ffc000     0x4000 load address 0x0000000080000f00
                0x0000000080ffc000                PROVIDE (_heap_end, .)
                0x0000000000004000                . = __stack_size
 *fill*         0x0000000080ffc000     0x4000
                0x0000000081000000                PROVIDE (_sp, .)
OUTPUT(rpc_server elf32-littleriscv)

.Pulp_Chip.Info
                0x0000000000000000       0x4e
 .Pulp_Chip.Info
                0x0000000000000000       0x4e /local/gerum/speech_recognition/external/hannah-tvm/tmp/TGC-VP/fw/bsp/env/start.o
 .Pulp_Chip.Info
                0x000000000000004e        0x0 /local/gerum/speech_recognition/external/hannah-tvm/tmp/TGC-VP/fw/bsp/env/entry.o
 .Pulp_Chip.Info
                0x000000000000004e        0x0 circular_buffer.o
 .Pulp_Chip.Info
                0x000000000000004e        0x0 cxx_support.o
 .Pulp_Chip.Info
                0x000000000000004e        0x0 main.o
 .Pulp_Chip.Info
                0x000000000000004e        0x0 crt/src/runtime/crt/common/crt_backend_api.o
 .Pulp_Chip.Info
                0x000000000000004e        0x0 crt/src/runtime/crt/common/crt_runtime_api.o
 .Pulp_Chip.Info
                0x000000000000004e        0x0 crt/src/runtime/crt/common/func_registry.o
 .Pulp_Chip.Info
                0x000000000000004e        0x0 crt/src/runtime/crt/common/ndarray.o
 .Pulp_Chip.Info
                0x000000000000004e        0x0 crt/src/runtime/crt/common/packed_func.o
 .Pulp_Chip.Info
                0x000000000000004e        0x0 crt/src/runtime/crt/graph_executor/graph_executor.o
 .Pulp_Chip.Info
                0x000000000000004e        0x0 crt/src/runtime/crt/graph_executor/load_json.o
 .Pulp_Chip.Info
                0x000000000000004e        0x0 crt/src/runtime/crt/graph_executor_module/graph_executor_module.o
 .Pulp_Chip.Info
                0x000000000000004e        0x0 crt/src/runtime/crt/memory/page_allocator.o
 .Pulp_Chip.Info
                0x000000000000004e        0x0 crt/src/runtime/crt/memory/stack_allocator.o
 .Pulp_Chip.Info
                0x000000000000004e        0x0 crt/src/runtime/crt/microtvm_rpc_common/crcccitt.o
 .Pulp_Chip.Info
                0x000000000000004e        0x0 /local/gerum/speech_recognition/external/hannah-tvm/tmp/TGC-VP/fw/bsp/env/tgfs-vp/init.o
 .Pulp_Chip.Info
                0x000000000000004e        0x0 delete.o
 .Pulp_Chip.Info
                0x000000000000004e        0x0 crt/src/runtime/crt/microtvm_rpc_common/frame_buffer.o
 .Pulp_Chip.Info
                0x000000000000004e        0x0 crt/src/runtime/crt/microtvm_rpc_common/framing.o
 .Pulp_Chip.Info
                0x000000000000004e        0x0 crt/src/runtime/crt/microtvm_rpc_common/session.o
 .Pulp_Chip.Info
                0x000000000000004e        0x0 crt/src/runtime/crt/microtvm_rpc_common/write_stream.o
 .Pulp_Chip.Info
                0x000000000000004e        0x0 crt/src/runtime/crt/microtvm_rpc_server/rpc_server.o
 .Pulp_Chip.Info
                0x000000000000004e        0x0 ./libwrap.a(malloc.o)
 .Pulp_Chip.Info
                0x000000000000004e        0x0 ./libwrap.a(write.o)
 .Pulp_Chip.Info
                0x000000000000004e        0x0 ./libwrap.a(isatty.o)
 .Pulp_Chip.Info
                0x000000000000004e        0x0 ./libwrap.a(sbrk.o)
 .Pulp_Chip.Info
                0x000000000000004e        0x0 ./libwrap.a(_exit.o)
 .Pulp_Chip.Info
                0x000000000000004e        0x0 ./libwrap.a(puts.o)
 .Pulp_Chip.Info
                0x000000000000004e        0x0 ./libwrap.a(write_hex.o)
 .Pulp_Chip.Info
                0x000000000000004e        0x0 ./libwrap.a(printf.o)
 .Pulp_Chip.Info
                0x000000000000004e        0x0 /opt/pulp-riscv-gcc/bin/../lib/gcc/riscv32-unknown-elf/7.1.1/../../../../riscv32-unknown-elf/lib/libc.a(lib_a-assert.o)
 .Pulp_Chip.Info
                0x000000000000004e        0x0 /opt/pulp-riscv-gcc/bin/../lib/gcc/riscv32-unknown-elf/7.1.1/../../../../riscv32-unknown-elf/lib/libc.a(lib_a-atexit.o)
 .Pulp_Chip.Info
                0x000000000000004e        0x0 /opt/pulp-riscv-gcc/bin/../lib/gcc/riscv32-unknown-elf/7.1.1/../../../../riscv32-unknown-elf/lib/libc.a(lib_a-exit.o)
 .Pulp_Chip.Info
                0x000000000000004e        0x0 /opt/pulp-riscv-gcc/bin/../lib/gcc/riscv32-unknown-elf/7.1.1/../../../../riscv32-unknown-elf/lib/libc.a(lib_a-fini.o)
 .Pulp_Chip.Info
                0x000000000000004e        0x0 /opt/pulp-riscv-gcc/bin/../lib/gcc/riscv32-unknown-elf/7.1.1/../../../../riscv32-unknown-elf/lib/libc.a(lib_a-fiprintf.o)
 .Pulp_Chip.Info
                0x000000000000004e        0x0 /opt/pulp-riscv-gcc/bin/../lib/gcc/riscv32-unknown-elf/7.1.1/../../../../riscv32-unknown-elf/lib/libc.a(lib_a-fprintf.o)
 .Pulp_Chip.Info
                0x000000000000004e        0x0 /opt/pulp-riscv-gcc/bin/../lib/gcc/riscv32-unknown-elf/7.1.1/../../../../riscv32-unknown-elf/lib/libc.a(lib_a-fwrite.o)
 .Pulp_Chip.Info
                0x000000000000004e        0x0 /opt/pulp-riscv-gcc/bin/../lib/gcc/riscv32-unknown-elf/7.1.1/../../../../riscv32-unknown-elf/lib/libc.a(lib_a-impure.o)
 .Pulp_Chip.Info
                0x000000000000004e        0x0 /opt/pulp-riscv-gcc/bin/../lib/gcc/riscv32-unknown-elf/7.1.1/../../../../riscv32-unknown-elf/lib/libc.a(lib_a-init.o)
 .Pulp_Chip.Info
                0x000000000000004e        0x0 /opt/pulp-riscv-gcc/bin/../lib/gcc/riscv32-unknown-elf/7.1.1/../../../../riscv32-unknown-elf/lib/libc.a(lib_a-locale.o)
 .Pulp_Chip.Info
                0x000000000000004e        0x0 /opt/pulp-riscv-gcc/bin/../lib/gcc/riscv32-unknown-elf/7.1.1/../../../../riscv32-unknown-elf/lib/libc.a(lib_a-mbtowc_r.o)
 .Pulp_Chip.Info
                0x000000000000004e        0x0 /opt/pulp-riscv-gcc/bin/../lib/gcc/riscv32-unknown-elf/7.1.1/../../../../riscv32-unknown-elf/lib/libc.a(lib_a-memcpy.o)
 .Pulp_Chip.Info
                0x000000000000004e        0x0 /opt/pulp-riscv-gcc/bin/../lib/gcc/riscv32-unknown-elf/7.1.1/../../../../riscv32-unknown-elf/lib/libc.a(lib_a-memset.o)
 .Pulp_Chip.Info
                0x000000000000004e        0x0 /opt/pulp-riscv-gcc/bin/../lib/gcc/riscv32-unknown-elf/7.1.1/../../../../riscv32-unknown-elf/lib/libc.a(lib_a-snprintf.o)
 .Pulp_Chip.Info
                0x000000000000004e        0x0 /opt/pulp-riscv-gcc/bin/../lib/gcc/riscv32-unknown-elf/7.1.1/../../../../riscv32-unknown-elf/lib/libc.a(lib_a-strcmp.o)
 .Pulp_Chip.Info
                0x000000000000004e        0x0 /opt/pulp-riscv-gcc/bin/../lib/gcc/riscv32-unknown-elf/7.1.1/../../../../riscv32-unknown-elf/lib/libc.a(lib_a-strlen.o)
 .Pulp_Chip.Info
                0x000000000000004e        0x0 /opt/pulp-riscv-gcc/bin/../lib/gcc/riscv32-unknown-elf/7.1.1/../../../../riscv32-unknown-elf/lib/libc.a(lib_a-strncmp.o)
 .Pulp_Chip.Info
                0x000000000000004e        0x0 /opt/pulp-riscv-gcc/bin/../lib/gcc/riscv32-unknown-elf/7.1.1/../../../../riscv32-unknown-elf/lib/libc.a(lib_a-strncpy.o)
 .Pulp_Chip.Info
                0x000000000000004e        0x0 /opt/pulp-riscv-gcc/bin/../lib/gcc/riscv32-unknown-elf/7.1.1/../../../../riscv32-unknown-elf/lib/libc.a(lib_a-strnlen.o)
 .Pulp_Chip.Info
                0x000000000000004e        0x0 /opt/pulp-riscv-gcc/bin/../lib/gcc/riscv32-unknown-elf/7.1.1/../../../../riscv32-unknown-elf/lib/libc.a(lib_a-strtol.o)
 .Pulp_Chip.Info
                0x000000000000004e        0x0 /opt/pulp-riscv-gcc/bin/../lib/gcc/riscv32-unknown-elf/7.1.1/../../../../riscv32-unknown-elf/lib/libc.a(lib_a-strtoul.o)
 .Pulp_Chip.Info
                0x000000000000004e        0x0 /opt/pulp-riscv-gcc/bin/../lib/gcc/riscv32-unknown-elf/7.1.1/../../../../riscv32-unknown-elf/lib/libc.a(lib_a-svfprintf.o)
 .Pulp_Chip.Info
                0x000000000000004e        0x0 /opt/pulp-riscv-gcc/bin/../lib/gcc/riscv32-unknown-elf/7.1.1/../../../../riscv32-unknown-elf/lib/libc.a(lib_a-vfiprintf.o)
 .Pulp_Chip.Info
                0x000000000000004e        0x0 /opt/pulp-riscv-gcc/bin/../lib/gcc/riscv32-unknown-elf/7.1.1/../../../../riscv32-unknown-elf/lib/libc.a(lib_a-vfprintf.o)
 .Pulp_Chip.Info
                0x000000000000004e        0x0 /opt/pulp-riscv-gcc/bin/../lib/gcc/riscv32-unknown-elf/7.1.1/../../../../riscv32-unknown-elf/lib/libc.a(lib_a-vsnprintf.o)
 .Pulp_Chip.Info
                0x000000000000004e        0x0 /opt/pulp-riscv-gcc/bin/../lib/gcc/riscv32-unknown-elf/7.1.1/../../../../riscv32-unknown-elf/lib/libc.a(lib_a-wctomb_r.o)
 .Pulp_Chip.Info
                0x000000000000004e        0x0 /opt/pulp-riscv-gcc/bin/../lib/gcc/riscv32-unknown-elf/7.1.1/../../../../riscv32-unknown-elf/lib/libc.a(lib_a-wsetup.o)
 .Pulp_Chip.Info
                0x000000000000004e        0x0 /opt/pulp-riscv-gcc/bin/../lib/gcc/riscv32-unknown-elf/7.1.1/../../../../riscv32-unknown-elf/lib/libc.a(lib_a-abort.o)
 .Pulp_Chip.Info
                0x000000000000004e        0x0 /opt/pulp-riscv-gcc/bin/../lib/gcc/riscv32-unknown-elf/7.1.1/../../../../riscv32-unknown-elf/lib/libc.a(lib_a-__atexit.o)
 .Pulp_Chip.Info
                0x000000000000004e        0x0 /opt/pulp-riscv-gcc/bin/../lib/gcc/riscv32-unknown-elf/7.1.1/../../../../riscv32-unknown-elf/lib/libc.a(lib_a-__call_atexit.o)
 .Pulp_Chip.Info
                0x000000000000004e        0x0 /opt/pulp-riscv-gcc/bin/../lib/gcc/riscv32-unknown-elf/7.1.1/../../../../riscv32-unknown-elf/lib/libc.a(lib_a-ctype_.o)
 .Pulp_Chip.Info
                0x000000000000004e        0x0 /opt/pulp-riscv-gcc/bin/../lib/gcc/riscv32-unknown-elf/7.1.1/../../../../riscv32-unknown-elf/lib/libc.a(lib_a-fflush.o)
 .Pulp_Chip.Info
                0x000000000000004e        0x0 /opt/pulp-riscv-gcc/bin/../lib/gcc/riscv32-unknown-elf/7.1.1/../../../../riscv32-unknown-elf/lib/libc.a(lib_a-findfp.o)
 .Pulp_Chip.Info
                0x000000000000004e        0x0 /opt/pulp-riscv-gcc/bin/../lib/gcc/riscv32-unknown-elf/7.1.1/../../../../riscv32-unknown-elf/lib/libc.a(lib_a-fputwc.o)
 .Pulp_Chip.Info
                0x000000000000004e        0x0 /opt/pulp-riscv-gcc/bin/../lib/gcc/riscv32-unknown-elf/7.1.1/../../../../riscv32-unknown-elf/lib/libc.a(lib_a-freer.o)
 .Pulp_Chip.Info
                0x000000000000004e        0x0 /opt/pulp-riscv-gcc/bin/../lib/gcc/riscv32-unknown-elf/7.1.1/../../../../riscv32-unknown-elf/lib/libc.a(lib_a-fvwrite.o)
 .Pulp_Chip.Info
                0x000000000000004e        0x0 /opt/pulp-riscv-gcc/bin/../lib/gcc/riscv32-unknown-elf/7.1.1/../../../../riscv32-unknown-elf/lib/libc.a(lib_a-fwalk.o)
 .Pulp_Chip.Info
                0x000000000000004e        0x0 /opt/pulp-riscv-gcc/bin/../lib/gcc/riscv32-unknown-elf/7.1.1/../../../../riscv32-unknown-elf/lib/libc.a(lib_a-ldtoa.o)
 .Pulp_Chip.Info
                0x000000000000004e        0x0 /opt/pulp-riscv-gcc/bin/../lib/gcc/riscv32-unknown-elf/7.1.1/../../../../riscv32-unknown-elf/lib/libc.a(lib_a-localeconv.o)
 .Pulp_Chip.Info
                0x000000000000004e        0x0 /opt/pulp-riscv-gcc/bin/../lib/gcc/riscv32-unknown-elf/7.1.1/../../../../riscv32-unknown-elf/lib/libc.a(lib_a-makebuf.o)
 .Pulp_Chip.Info
                0x000000000000004e        0x0 /opt/pulp-riscv-gcc/bin/../lib/gcc/riscv32-unknown-elf/7.1.1/../../../../riscv32-unknown-elf/lib/libc.a(lib_a-mallocr.o)
 .Pulp_Chip.Info
                0x000000000000004e        0x0 /opt/pulp-riscv-gcc/bin/../lib/gcc/riscv32-unknown-elf/7.1.1/../../../../riscv32-unknown-elf/lib/libc.a(lib_a-memchr.o)
 .Pulp_Chip.Info
                0x000000000000004e        0x0 /opt/pulp-riscv-gcc/bin/../lib/gcc/riscv32-unknown-elf/7.1.1/../../../../riscv32-unknown-elf/lib/libc.a(lib_a-memmove.o)
 .Pulp_Chip.Info
                0x000000000000004e        0x0 /opt/pulp-riscv-gcc/bin/../lib/gcc/riscv32-unknown-elf/7.1.1/../../../../riscv32-unknown-elf/lib/libc.a(lib_a-mlock.o)
 .Pulp_Chip.Info
                0x000000000000004e        0x0 /opt/pulp-riscv-gcc/bin/../lib/gcc/riscv32-unknown-elf/7.1.1/../../../../riscv32-unknown-elf/lib/libc.a(lib_a-mprec.o)
 .Pulp_Chip.Info
                0x000000000000004e        0x0 /opt/pulp-riscv-gcc/bin/../lib/gcc/riscv32-unknown-elf/7.1.1/../../../../riscv32-unknown-elf/lib/libc.a(lib_a-reallocr.o)
 .Pulp_Chip.Info
                0x000000000000004e        0x0 /opt/pulp-riscv-gcc/bin/../lib/gcc/riscv32-unknown-elf/7.1.1/../../../../riscv32-unknown-elf/lib/libc.a(lib_a-sbrkr.o)
 .Pulp_Chip.Info
                0x000000000000004e        0x0 /opt/pulp-riscv-gcc/bin/../lib/gcc/riscv32-unknown-elf/7.1.1/../../../../riscv32-unknown-elf/lib/libc.a(lib_a-s_frexp.o)
 .Pulp_Chip.Info
                0x000000000000004e        0x0 /opt/pulp-riscv-gcc/bin/../lib/gcc/riscv32-unknown-elf/7.1.1/../../../../riscv32-unknown-elf/lib/libc.a(lib_a-signal.o)
 .Pulp_Chip.Info
                0x000000000000004e        0x0 /opt/pulp-riscv-gcc/bin/../lib/gcc/riscv32-unknown-elf/7.1.1/../../../../riscv32-unknown-elf/lib/libc.a(lib_a-signalr.o)
 .Pulp_Chip.Info
                0x000000000000004e        0x0 /opt/pulp-riscv-gcc/bin/../lib/gcc/riscv32-unknown-elf/7.1.1/../../../../riscv32-unknown-elf/lib/libc.a(lib_a-sprintf.o)
 .Pulp_Chip.Info
                0x000000000000004e        0x0 /opt/pulp-riscv-gcc/bin/../lib/gcc/riscv32-unknown-elf/7.1.1/../../../../riscv32-unknown-elf/lib/libc.a(lib_a-stdio.o)
 .Pulp_Chip.Info
                0x000000000000004e        0x0 /opt/pulp-riscv-gcc/bin/../lib/gcc/riscv32-unknown-elf/7.1.1/../../../../riscv32-unknown-elf/lib/libc.a(lib_a-strcpy.o)
 .Pulp_Chip.Info
                0x000000000000004e        0x0 /opt/pulp-riscv-gcc/bin/../lib/gcc/riscv32-unknown-elf/7.1.1/../../../../riscv32-unknown-elf/lib/libc.a(lib_a-svfiprintf.o)
 .Pulp_Chip.Info
                0x000000000000004e        0x0 /opt/pulp-riscv-gcc/bin/../lib/gcc/riscv32-unknown-elf/7.1.1/../../../../riscv32-unknown-elf/lib/libc.a(lib_a-wbuf.o)
 .Pulp_Chip.Info
                0x000000000000004e        0x0 /opt/pulp-riscv-gcc/bin/../lib/gcc/riscv32-unknown-elf/7.1.1/../../../../riscv32-unknown-elf/lib/libc.a(lib_a-wcrtomb.o)
 .Pulp_Chip.Info
                0x000000000000004e        0x0 /opt/pulp-riscv-gcc/bin/../lib/gcc/riscv32-unknown-elf/7.1.1/../../../../riscv32-unknown-elf/lib/libc.a(lib_a-writer.o)
 .Pulp_Chip.Info
                0x000000000000004e        0x0 /opt/pulp-riscv-gcc/bin/../lib/gcc/riscv32-unknown-elf/7.1.1/../../../../riscv32-unknown-elf/lib/libc.a(lib_a-callocr.o)
 .Pulp_Chip.Info
                0x000000000000004e        0x0 /opt/pulp-riscv-gcc/bin/../lib/gcc/riscv32-unknown-elf/7.1.1/../../../../riscv32-unknown-elf/lib/libc.a(lib_a-closer.o)
 .Pulp_Chip.Info
                0x000000000000004e        0x0 /opt/pulp-riscv-gcc/bin/../lib/gcc/riscv32-unknown-elf/7.1.1/../../../../riscv32-unknown-elf/lib/libc.a(lib_a-fclose.o)
 .Pulp_Chip.Info
                0x000000000000004e        0x0 /opt/pulp-riscv-gcc/bin/../lib/gcc/riscv32-unknown-elf/7.1.1/../../../../riscv32-unknown-elf/lib/libc.a(lib_a-fstatr.o)
 .Pulp_Chip.Info
                0x000000000000004e        0x0 /opt/pulp-riscv-gcc/bin/../lib/gcc/riscv32-unknown-elf/7.1.1/../../../../riscv32-unknown-elf/lib/libc.a(lib_a-isattyr.o)
 .Pulp_Chip.Info
                0x000000000000004e        0x0 /opt/pulp-riscv-gcc/bin/../lib/gcc/riscv32-unknown-elf/7.1.1/../../../../riscv32-unknown-elf/lib/libc.a(lib_a-lseekr.o)
 .Pulp_Chip.Info
                0x000000000000004e        0x0 /opt/pulp-riscv-gcc/bin/../lib/gcc/riscv32-unknown-elf/7.1.1/../../../../riscv32-unknown-elf/lib/libc.a(lib_a-readr.o)
 .Pulp_Chip.Info
                0x000000000000004e        0x0 /opt/pulp-riscv-gcc/bin/../lib/gcc/riscv32-unknown-elf/7.1.1/../../../../riscv32-unknown-elf/lib/libc.a(lib_a-reent.o)
 .Pulp_Chip.Info
                0x000000000000004e        0x0 ./libwrap.a(lseek.o)
 .Pulp_Chip.Info
                0x000000000000004e        0x0 ./libwrap.a(read.o)
 .Pulp_Chip.Info
                0x000000000000004e        0x0 ./libwrap.a(fstat.o)
 .Pulp_Chip.Info
                0x000000000000004e        0x0 ./libwrap.a(close.o)
 .Pulp_Chip.Info
                0x000000000000004e        0x0 ./libwrap.a(getpid.o)
 .Pulp_Chip.Info
                0x000000000000004e        0x0 ./libwrap.a(kill.o)
 .Pulp_Chip.Info
                0x000000000000004e        0x0 /opt/pulp-riscv-gcc/bin/../lib/gcc/riscv32-unknown-elf/7.1.1/libgcc.a(_divdi3.o)
 .Pulp_Chip.Info
                0x000000000000004e        0x0 /opt/pulp-riscv-gcc/bin/../lib/gcc/riscv32-unknown-elf/7.1.1/libgcc.a(_udivdi3.o)
 .Pulp_Chip.Info
                0x000000000000004e        0x0 /opt/pulp-riscv-gcc/bin/../lib/gcc/riscv32-unknown-elf/7.1.1/libgcc.a(_umoddi3.o)
 .Pulp_Chip.Info
                0x000000000000004e        0x0 /opt/pulp-riscv-gcc/bin/../lib/gcc/riscv32-unknown-elf/7.1.1/libgcc.a(adddf3.o)
 .Pulp_Chip.Info
                0x000000000000004e        0x0 /opt/pulp-riscv-gcc/bin/../lib/gcc/riscv32-unknown-elf/7.1.1/libgcc.a(divdf3.o)
 .Pulp_Chip.Info
                0x000000000000004e        0x0 /opt/pulp-riscv-gcc/bin/../lib/gcc/riscv32-unknown-elf/7.1.1/libgcc.a(ledf2.o)
 .Pulp_Chip.Info
                0x000000000000004e        0x0 /opt/pulp-riscv-gcc/bin/../lib/gcc/riscv32-unknown-elf/7.1.1/libgcc.a(muldf3.o)
 .Pulp_Chip.Info
                0x000000000000004e        0x0 /opt/pulp-riscv-gcc/bin/../lib/gcc/riscv32-unknown-elf/7.1.1/libgcc.a(floatsidf.o)
 .Pulp_Chip.Info
                0x000000000000004e        0x0 /opt/pulp-riscv-gcc/bin/../lib/gcc/riscv32-unknown-elf/7.1.1/libgcc.a(eqtf2.o)
 .Pulp_Chip.Info
                0x000000000000004e        0x0 /opt/pulp-riscv-gcc/bin/../lib/gcc/riscv32-unknown-elf/7.1.1/libgcc.a(getf2.o)
 .Pulp_Chip.Info
                0x000000000000004e        0x0 /opt/pulp-riscv-gcc/bin/../lib/gcc/riscv32-unknown-elf/7.1.1/libgcc.a(letf2.o)
 .Pulp_Chip.Info
                0x000000000000004e        0x0 /opt/pulp-riscv-gcc/bin/../lib/gcc/riscv32-unknown-elf/7.1.1/libgcc.a(multf3.o)
 .Pulp_Chip.Info
                0x000000000000004e        0x0 /opt/pulp-riscv-gcc/bin/../lib/gcc/riscv32-unknown-elf/7.1.1/libgcc.a(subtf3.o)
 .Pulp_Chip.Info
                0x000000000000004e        0x0 /opt/pulp-riscv-gcc/bin/../lib/gcc/riscv32-unknown-elf/7.1.1/libgcc.a(fixtfsi.o)
 .Pulp_Chip.Info
                0x000000000000004e        0x0 /opt/pulp-riscv-gcc/bin/../lib/gcc/riscv32-unknown-elf/7.1.1/libgcc.a(floatsitf.o)
 .Pulp_Chip.Info
                0x000000000000004e        0x0 /opt/pulp-riscv-gcc/bin/../lib/gcc/riscv32-unknown-elf/7.1.1/libgcc.a(extenddftf2.o)
 .Pulp_Chip.Info
                0x000000000000004e        0x0 /opt/pulp-riscv-gcc/bin/../lib/gcc/riscv32-unknown-elf/7.1.1/libgcc.a(trunctfdf2.o)
 .Pulp_Chip.Info
                0x000000000000004e        0x0 /opt/pulp-riscv-gcc/bin/../lib/gcc/riscv32-unknown-elf/7.1.1/libgcc.a(muldi3.o)
 .Pulp_Chip.Info
                0x000000000000004e        0x0 /opt/pulp-riscv-gcc/bin/../lib/gcc/riscv32-unknown-elf/7.1.1/libgcc.a(multi3.o)
 .Pulp_Chip.Info
                0x000000000000004e        0x0 /opt/pulp-riscv-gcc/bin/../lib/gcc/riscv32-unknown-elf/7.1.1/libgcc.a(div.o)
 .Pulp_Chip.Info
                0x000000000000004e        0x0 /opt/pulp-riscv-gcc/bin/../lib/gcc/riscv32-unknown-elf/7.1.1/libgcc.a(_clz.o)
 .Pulp_Chip.Info
                0x000000000000004e        0x0 /opt/pulp-riscv-gcc/bin/../lib/gcc/riscv32-unknown-elf/7.1.1/libgcc.a(_clzsi2.o)

.comment        0x0000000000000000       0x1a
 .comment       0x0000000000000000       0x1a circular_buffer.o
                                         0x1b (size before relaxing)
 .comment       0x000000000000001a       0x1b cxx_support.o
 .comment       0x000000000000001a       0x1b main.o
 .comment       0x000000000000001a       0x1b crt/src/runtime/crt/common/crt_backend_api.o
 .comment       0x000000000000001a       0x1b crt/src/runtime/crt/common/crt_runtime_api.o
 .comment       0x000000000000001a       0x1b crt/src/runtime/crt/common/func_registry.o
 .comment       0x000000000000001a       0x1b crt/src/runtime/crt/common/ndarray.o
 .comment       0x000000000000001a       0x1b crt/src/runtime/crt/common/packed_func.o
 .comment       0x000000000000001a       0x1b crt/src/runtime/crt/graph_executor/graph_executor.o
 .comment       0x000000000000001a       0x1b crt/src/runtime/crt/graph_executor/load_json.o
 .comment       0x000000000000001a       0x1b crt/src/runtime/crt/graph_executor_module/graph_executor_module.o
 .comment       0x000000000000001a       0x1b crt/src/runtime/crt/memory/page_allocator.o
 .comment       0x000000000000001a       0x1b crt/src/runtime/crt/memory/stack_allocator.o
 .comment       0x000000000000001a       0x1b crt/src/runtime/crt/microtvm_rpc_common/crcccitt.o
 .comment       0x000000000000001a       0x1b /local/gerum/speech_recognition/external/hannah-tvm/tmp/TGC-VP/fw/bsp/env/tgfs-vp/init.o
 .comment       0x000000000000001a       0x1b delete.o
 .comment       0x000000000000001a       0x1b crt/src/runtime/crt/microtvm_rpc_common/frame_buffer.o
 .comment       0x000000000000001a       0x1b crt/src/runtime/crt/microtvm_rpc_common/framing.o
 .comment       0x000000000000001a       0x1b crt/src/runtime/crt/microtvm_rpc_common/session.o
 .comment       0x000000000000001a       0x1b crt/src/runtime/crt/microtvm_rpc_common/write_stream.o
 .comment       0x000000000000001a       0x1b crt/src/runtime/crt/microtvm_rpc_server/rpc_server.o
 .comment       0x000000000000001a       0x1b ./libwrap.a(malloc.o)
 .comment       0x000000000000001a       0x1b ./libwrap.a(write.o)
 .comment       0x000000000000001a       0x1b ./libwrap.a(isatty.o)
 .comment       0x000000000000001a       0x1b ./libwrap.a(sbrk.o)
 .comment       0x000000000000001a       0x1b ./libwrap.a(_exit.o)
 .comment       0x000000000000001a       0x1b ./libwrap.a(puts.o)
 .comment       0x000000000000001a       0x1b ./libwrap.a(write_hex.o)
 .comment       0x000000000000001a       0x1b ./libwrap.a(printf.o)
 .comment       0x000000000000001a       0x1b /opt/pulp-riscv-gcc/bin/../lib/gcc/riscv32-unknown-elf/7.1.1/../../../../riscv32-unknown-elf/lib/libc.a(lib_a-assert.o)
 .comment       0x000000000000001a       0x1b /opt/pulp-riscv-gcc/bin/../lib/gcc/riscv32-unknown-elf/7.1.1/../../../../riscv32-unknown-elf/lib/libc.a(lib_a-atexit.o)
 .comment       0x000000000000001a       0x1b /opt/pulp-riscv-gcc/bin/../lib/gcc/riscv32-unknown-elf/7.1.1/../../../../riscv32-unknown-elf/lib/libc.a(lib_a-exit.o)
 .comment       0x000000000000001a       0x1b /opt/pulp-riscv-gcc/bin/../lib/gcc/riscv32-unknown-elf/7.1.1/../../../../riscv32-unknown-elf/lib/libc.a(lib_a-fini.o)
 .comment       0x000000000000001a       0x1b /opt/pulp-riscv-gcc/bin/../lib/gcc/riscv32-unknown-elf/7.1.1/../../../../riscv32-unknown-elf/lib/libc.a(lib_a-fiprintf.o)
 .comment       0x000000000000001a       0x1b /opt/pulp-riscv-gcc/bin/../lib/gcc/riscv32-unknown-elf/7.1.1/../../../../riscv32-unknown-elf/lib/libc.a(lib_a-fprintf.o)
 .comment       0x000000000000001a       0x1b /opt/pulp-riscv-gcc/bin/../lib/gcc/riscv32-unknown-elf/7.1.1/../../../../riscv32-unknown-elf/lib/libc.a(lib_a-fwrite.o)
 .comment       0x000000000000001a       0x1b /opt/pulp-riscv-gcc/bin/../lib/gcc/riscv32-unknown-elf/7.1.1/../../../../riscv32-unknown-elf/lib/libc.a(lib_a-impure.o)
 .comment       0x000000000000001a       0x1b /opt/pulp-riscv-gcc/bin/../lib/gcc/riscv32-unknown-elf/7.1.1/../../../../riscv32-unknown-elf/lib/libc.a(lib_a-init.o)
 .comment       0x000000000000001a       0x1b /opt/pulp-riscv-gcc/bin/../lib/gcc/riscv32-unknown-elf/7.1.1/../../../../riscv32-unknown-elf/lib/libc.a(lib_a-locale.o)
 .comment       0x000000000000001a       0x1b /opt/pulp-riscv-gcc/bin/../lib/gcc/riscv32-unknown-elf/7.1.1/../../../../riscv32-unknown-elf/lib/libc.a(lib_a-mbtowc_r.o)
 .comment       0x000000000000001a       0x1b /opt/pulp-riscv-gcc/bin/../lib/gcc/riscv32-unknown-elf/7.1.1/../../../../riscv32-unknown-elf/lib/libc.a(lib_a-memcpy.o)
 .comment       0x000000000000001a       0x1b /opt/pulp-riscv-gcc/bin/../lib/gcc/riscv32-unknown-elf/7.1.1/../../../../riscv32-unknown-elf/lib/libc.a(lib_a-snprintf.o)
 .comment       0x000000000000001a       0x1b /opt/pulp-riscv-gcc/bin/../lib/gcc/riscv32-unknown-elf/7.1.1/../../../../riscv32-unknown-elf/lib/libc.a(lib_a-strlen.o)
 .comment       0x000000000000001a       0x1b /opt/pulp-riscv-gcc/bin/../lib/gcc/riscv32-unknown-elf/7.1.1/../../../../riscv32-unknown-elf/lib/libc.a(lib_a-strncmp.o)
 .comment       0x000000000000001a       0x1b /opt/pulp-riscv-gcc/bin/../lib/gcc/riscv32-unknown-elf/7.1.1/../../../../riscv32-unknown-elf/lib/libc.a(lib_a-strncpy.o)
 .comment       0x000000000000001a       0x1b /opt/pulp-riscv-gcc/bin/../lib/gcc/riscv32-unknown-elf/7.1.1/../../../../riscv32-unknown-elf/lib/libc.a(lib_a-strnlen.o)
 .comment       0x000000000000001a       0x1b /opt/pulp-riscv-gcc/bin/../lib/gcc/riscv32-unknown-elf/7.1.1/../../../../riscv32-unknown-elf/lib/libc.a(lib_a-strtol.o)
 .comment       0x000000000000001a       0x1b /opt/pulp-riscv-gcc/bin/../lib/gcc/riscv32-unknown-elf/7.1.1/../../../../riscv32-unknown-elf/lib/libc.a(lib_a-strtoul.o)
 .comment       0x000000000000001a       0x1b /opt/pulp-riscv-gcc/bin/../lib/gcc/riscv32-unknown-elf/7.1.1/../../../../riscv32-unknown-elf/lib/libc.a(lib_a-svfprintf.o)
 .comment       0x000000000000001a       0x1b /opt/pulp-riscv-gcc/bin/../lib/gcc/riscv32-unknown-elf/7.1.1/../../../../riscv32-unknown-elf/lib/libc.a(lib_a-vfiprintf.o)
 .comment       0x000000000000001a       0x1b /opt/pulp-riscv-gcc/bin/../lib/gcc/riscv32-unknown-elf/7.1.1/../../../../riscv32-unknown-elf/lib/libc.a(lib_a-vfprintf.o)
 .comment       0x000000000000001a       0x1b /opt/pulp-riscv-gcc/bin/../lib/gcc/riscv32-unknown-elf/7.1.1/../../../../riscv32-unknown-elf/lib/libc.a(lib_a-vsnprintf.o)
 .comment       0x000000000000001a       0x1b /opt/pulp-riscv-gcc/bin/../lib/gcc/riscv32-unknown-elf/7.1.1/../../../../riscv32-unknown-elf/lib/libc.a(lib_a-wctomb_r.o)
 .comment       0x000000000000001a       0x1b /opt/pulp-riscv-gcc/bin/../lib/gcc/riscv32-unknown-elf/7.1.1/../../../../riscv32-unknown-elf/lib/libc.a(lib_a-wsetup.o)
 .comment       0x000000000000001a       0x1b /opt/pulp-riscv-gcc/bin/../lib/gcc/riscv32-unknown-elf/7.1.1/../../../../riscv32-unknown-elf/lib/libc.a(lib_a-abort.o)
 .comment       0x000000000000001a       0x1b /opt/pulp-riscv-gcc/bin/../lib/gcc/riscv32-unknown-elf/7.1.1/../../../../riscv32-unknown-elf/lib/libc.a(lib_a-__atexit.o)
 .comment       0x000000000000001a       0x1b /opt/pulp-riscv-gcc/bin/../lib/gcc/riscv32-unknown-elf/7.1.1/../../../../riscv32-unknown-elf/lib/libc.a(lib_a-__call_atexit.o)
 .comment       0x000000000000001a       0x1b /opt/pulp-riscv-gcc/bin/../lib/gcc/riscv32-unknown-elf/7.1.1/../../../../riscv32-unknown-elf/lib/libc.a(lib_a-ctype_.o)
 .comment       0x000000000000001a       0x1b /opt/pulp-riscv-gcc/bin/../lib/gcc/riscv32-unknown-elf/7.1.1/../../../../riscv32-unknown-elf/lib/libc.a(lib_a-fflush.o)
 .comment       0x000000000000001a       0x1b /opt/pulp-riscv-gcc/bin/../lib/gcc/riscv32-unknown-elf/7.1.1/../../../../riscv32-unknown-elf/lib/libc.a(lib_a-findfp.o)
 .comment       0x000000000000001a       0x1b /opt/pulp-riscv-gcc/bin/../lib/gcc/riscv32-unknown-elf/7.1.1/../../../../riscv32-unknown-elf/lib/libc.a(lib_a-fputwc.o)
 .comment       0x000000000000001a       0x1b /opt/pulp-riscv-gcc/bin/../lib/gcc/riscv32-unknown-elf/7.1.1/../../../../riscv32-unknown-elf/lib/libc.a(lib_a-freer.o)
 .comment       0x000000000000001a       0x1b /opt/pulp-riscv-gcc/bin/../lib/gcc/riscv32-unknown-elf/7.1.1/../../../../riscv32-unknown-elf/lib/libc.a(lib_a-fvwrite.o)
 .comment       0x000000000000001a       0x1b /opt/pulp-riscv-gcc/bin/../lib/gcc/riscv32-unknown-elf/7.1.1/../../../../riscv32-unknown-elf/lib/libc.a(lib_a-fwalk.o)
 .comment       0x000000000000001a       0x1b /opt/pulp-riscv-gcc/bin/../lib/gcc/riscv32-unknown-elf/7.1.1/../../../../riscv32-unknown-elf/lib/libc.a(lib_a-ldtoa.o)
 .comment       0x000000000000001a       0x1b /opt/pulp-riscv-gcc/bin/../lib/gcc/riscv32-unknown-elf/7.1.1/../../../../riscv32-unknown-elf/lib/libc.a(lib_a-localeconv.o)
 .comment       0x000000000000001a       0x1b /opt/pulp-riscv-gcc/bin/../lib/gcc/riscv32-unknown-elf/7.1.1/../../../../riscv32-unknown-elf/lib/libc.a(lib_a-makebuf.o)
 .comment       0x000000000000001a       0x1b /opt/pulp-riscv-gcc/bin/../lib/gcc/riscv32-unknown-elf/7.1.1/../../../../riscv32-unknown-elf/lib/libc.a(lib_a-mallocr.o)
 .comment       0x000000000000001a       0x1b /opt/pulp-riscv-gcc/bin/../lib/gcc/riscv32-unknown-elf/7.1.1/../../../../riscv32-unknown-elf/lib/libc.a(lib_a-memchr.o)
 .comment       0x000000000000001a       0x1b /opt/pulp-riscv-gcc/bin/../lib/gcc/riscv32-unknown-elf/7.1.1/../../../../riscv32-unknown-elf/lib/libc.a(lib_a-memmove.o)
 .comment       0x000000000000001a       0x1b /opt/pulp-riscv-gcc/bin/../lib/gcc/riscv32-unknown-elf/7.1.1/../../../../riscv32-unknown-elf/lib/libc.a(lib_a-mlock.o)
 .comment       0x000000000000001a       0x1b /opt/pulp-riscv-gcc/bin/../lib/gcc/riscv32-unknown-elf/7.1.1/../../../../riscv32-unknown-elf/lib/libc.a(lib_a-mprec.o)
 .comment       0x000000000000001a       0x1b /opt/pulp-riscv-gcc/bin/../lib/gcc/riscv32-unknown-elf/7.1.1/../../../../riscv32-unknown-elf/lib/libc.a(lib_a-reallocr.o)
 .comment       0x000000000000001a       0x1b /opt/pulp-riscv-gcc/bin/../lib/gcc/riscv32-unknown-elf/7.1.1/../../../../riscv32-unknown-elf/lib/libc.a(lib_a-sbrkr.o)
 .comment       0x000000000000001a       0x1b /opt/pulp-riscv-gcc/bin/../lib/gcc/riscv32-unknown-elf/7.1.1/../../../../riscv32-unknown-elf/lib/libc.a(lib_a-s_frexp.o)
 .comment       0x000000000000001a       0x1b /opt/pulp-riscv-gcc/bin/../lib/gcc/riscv32-unknown-elf/7.1.1/../../../../riscv32-unknown-elf/lib/libc.a(lib_a-signal.o)
 .comment       0x000000000000001a       0x1b /opt/pulp-riscv-gcc/bin/../lib/gcc/riscv32-unknown-elf/7.1.1/../../../../riscv32-unknown-elf/lib/libc.a(lib_a-signalr.o)
 .comment       0x000000000000001a       0x1b /opt/pulp-riscv-gcc/bin/../lib/gcc/riscv32-unknown-elf/7.1.1/../../../../riscv32-unknown-elf/lib/libc.a(lib_a-sprintf.o)
 .comment       0x000000000000001a       0x1b /opt/pulp-riscv-gcc/bin/../lib/gcc/riscv32-unknown-elf/7.1.1/../../../../riscv32-unknown-elf/lib/libc.a(lib_a-stdio.o)
 .comment       0x000000000000001a       0x1b /opt/pulp-riscv-gcc/bin/../lib/gcc/riscv32-unknown-elf/7.1.1/../../../../riscv32-unknown-elf/lib/libc.a(lib_a-strcpy.o)
 .comment       0x000000000000001a       0x1b /opt/pulp-riscv-gcc/bin/../lib/gcc/riscv32-unknown-elf/7.1.1/../../../../riscv32-unknown-elf/lib/libc.a(lib_a-svfiprintf.o)
 .comment       0x000000000000001a       0x1b /opt/pulp-riscv-gcc/bin/../lib/gcc/riscv32-unknown-elf/7.1.1/../../../../riscv32-unknown-elf/lib/libc.a(lib_a-wbuf.o)
 .comment       0x000000000000001a       0x1b /opt/pulp-riscv-gcc/bin/../lib/gcc/riscv32-unknown-elf/7.1.1/../../../../riscv32-unknown-elf/lib/libc.a(lib_a-wcrtomb.o)
 .comment       0x000000000000001a       0x1b /opt/pulp-riscv-gcc/bin/../lib/gcc/riscv32-unknown-elf/7.1.1/../../../../riscv32-unknown-elf/lib/libc.a(lib_a-writer.o)
 .comment       0x000000000000001a       0x1b /opt/pulp-riscv-gcc/bin/../lib/gcc/riscv32-unknown-elf/7.1.1/../../../../riscv32-unknown-elf/lib/libc.a(lib_a-callocr.o)
 .comment       0x000000000000001a       0x1b /opt/pulp-riscv-gcc/bin/../lib/gcc/riscv32-unknown-elf/7.1.1/../../../../riscv32-unknown-elf/lib/libc.a(lib_a-closer.o)
 .comment       0x000000000000001a       0x1b /opt/pulp-riscv-gcc/bin/../lib/gcc/riscv32-unknown-elf/7.1.1/../../../../riscv32-unknown-elf/lib/libc.a(lib_a-fclose.o)
 .comment       0x000000000000001a       0x1b /opt/pulp-riscv-gcc/bin/../lib/gcc/riscv32-unknown-elf/7.1.1/../../../../riscv32-unknown-elf/lib/libc.a(lib_a-fstatr.o)
 .comment       0x000000000000001a       0x1b /opt/pulp-riscv-gcc/bin/../lib/gcc/riscv32-unknown-elf/7.1.1/../../../../riscv32-unknown-elf/lib/libc.a(lib_a-isattyr.o)
 .comment       0x000000000000001a       0x1b /opt/pulp-riscv-gcc/bin/../lib/gcc/riscv32-unknown-elf/7.1.1/../../../../riscv32-unknown-elf/lib/libc.a(lib_a-lseekr.o)
 .comment       0x000000000000001a       0x1b /opt/pulp-riscv-gcc/bin/../lib/gcc/riscv32-unknown-elf/7.1.1/../../../../riscv32-unknown-elf/lib/libc.a(lib_a-readr.o)
 .comment       0x000000000000001a       0x1b /opt/pulp-riscv-gcc/bin/../lib/gcc/riscv32-unknown-elf/7.1.1/../../../../riscv32-unknown-elf/lib/libc.a(lib_a-reent.o)
 .comment       0x000000000000001a       0x1b ./libwrap.a(lseek.o)
 .comment       0x000000000000001a       0x1b ./libwrap.a(read.o)
 .comment       0x000000000000001a       0x1b ./libwrap.a(fstat.o)
 .comment       0x000000000000001a       0x1b ./libwrap.a(close.o)
 .comment       0x000000000000001a       0x1b ./libwrap.a(getpid.o)
 .comment       0x000000000000001a       0x1b ./libwrap.a(kill.o)
 .comment       0x000000000000001a       0x1b /opt/pulp-riscv-gcc/bin/../lib/gcc/riscv32-unknown-elf/7.1.1/libgcc.a(_divdi3.o)
 .comment       0x000000000000001a       0x1b /opt/pulp-riscv-gcc/bin/../lib/gcc/riscv32-unknown-elf/7.1.1/libgcc.a(_udivdi3.o)
 .comment       0x000000000000001a       0x1b /opt/pulp-riscv-gcc/bin/../lib/gcc/riscv32-unknown-elf/7.1.1/libgcc.a(_umoddi3.o)
 .comment       0x000000000000001a       0x1b /opt/pulp-riscv-gcc/bin/../lib/gcc/riscv32-unknown-elf/7.1.1/libgcc.a(adddf3.o)
 .comment       0x000000000000001a       0x1b /opt/pulp-riscv-gcc/bin/../lib/gcc/riscv32-unknown-elf/7.1.1/libgcc.a(divdf3.o)
 .comment       0x000000000000001a       0x1b /opt/pulp-riscv-gcc/bin/../lib/gcc/riscv32-unknown-elf/7.1.1/libgcc.a(ledf2.o)
 .comment       0x000000000000001a       0x1b /opt/pulp-riscv-gcc/bin/../lib/gcc/riscv32-unknown-elf/7.1.1/libgcc.a(muldf3.o)
 .comment       0x000000000000001a       0x1b /opt/pulp-riscv-gcc/bin/../lib/gcc/riscv32-unknown-elf/7.1.1/libgcc.a(floatsidf.o)
 .comment       0x000000000000001a       0x1b /opt/pulp-riscv-gcc/bin/../lib/gcc/riscv32-unknown-elf/7.1.1/libgcc.a(eqtf2.o)
 .comment       0x000000000000001a       0x1b /opt/pulp-riscv-gcc/bin/../lib/gcc/riscv32-unknown-elf/7.1.1/libgcc.a(getf2.o)
 .comment       0x000000000000001a       0x1b /opt/pulp-riscv-gcc/bin/../lib/gcc/riscv32-unknown-elf/7.1.1/libgcc.a(letf2.o)
 .comment       0x000000000000001a       0x1b /opt/pulp-riscv-gcc/bin/../lib/gcc/riscv32-unknown-elf/7.1.1/libgcc.a(multf3.o)
 .comment       0x000000000000001a       0x1b /opt/pulp-riscv-gcc/bin/../lib/gcc/riscv32-unknown-elf/7.1.1/libgcc.a(subtf3.o)
 .comment       0x000000000000001a       0x1b /opt/pulp-riscv-gcc/bin/../lib/gcc/riscv32-unknown-elf/7.1.1/libgcc.a(fixtfsi.o)
 .comment       0x000000000000001a       0x1b /opt/pulp-riscv-gcc/bin/../lib/gcc/riscv32-unknown-elf/7.1.1/libgcc.a(floatsitf.o)
 .comment       0x000000000000001a       0x1b /opt/pulp-riscv-gcc/bin/../lib/gcc/riscv32-unknown-elf/7.1.1/libgcc.a(extenddftf2.o)
 .comment       0x000000000000001a       0x1b /opt/pulp-riscv-gcc/bin/../lib/gcc/riscv32-unknown-elf/7.1.1/libgcc.a(trunctfdf2.o)
 .comment       0x000000000000001a       0x1b /opt/pulp-riscv-gcc/bin/../lib/gcc/riscv32-unknown-elf/7.1.1/libgcc.a(_clz.o)
 .comment       0x000000000000001a       0x1b /opt/pulp-riscv-gcc/bin/../lib/gcc/riscv32-unknown-elf/7.1.1/libgcc.a(_clzsi2.o)

.debug_line     0x0000000000000000     0xfee8
 .debug_line    0x0000000000000000      0x130 /local/gerum/speech_recognition/external/hannah-tvm/tmp/TGC-VP/fw/bsp/env/start.o
 .debug_line    0x0000000000000130      0x232 /local/gerum/speech_recognition/external/hannah-tvm/tmp/TGC-VP/fw/bsp/env/entry.o
 .debug_line    0x0000000000000362      0x4db circular_buffer.o
 .debug_line    0x000000000000083d       0x46 cxx_support.o
 .debug_line    0x0000000000000883      0x45b main.o
 .debug_line    0x0000000000000cde      0x2c4 crt/src/runtime/crt/common/crt_backend_api.o
 .debug_line    0x0000000000000fa2      0xbef crt/src/runtime/crt/common/crt_runtime_api.o
 .debug_line    0x0000000000001b91      0x3c6 crt/src/runtime/crt/common/func_registry.o
 .debug_line    0x0000000000001f57      0x501 crt/src/runtime/crt/common/ndarray.o
 .debug_line    0x0000000000002458      0x43c crt/src/runtime/crt/common/packed_func.o
 .debug_line    0x0000000000002894     0x1a20 crt/src/runtime/crt/graph_executor/graph_executor.o
 .debug_line    0x00000000000042b4      0x903 crt/src/runtime/crt/graph_executor/load_json.o
 .debug_line    0x0000000000004bb7      0x5bf crt/src/runtime/crt/graph_executor_module/graph_executor_module.o
 .debug_line    0x0000000000005176      0x763 crt/src/runtime/crt/memory/page_allocator.o
 .debug_line    0x00000000000058d9      0x286 crt/src/runtime/crt/memory/stack_allocator.o
 .debug_line    0x0000000000005b5f      0x28c crt/src/runtime/crt/microtvm_rpc_common/crcccitt.o
 .debug_line    0x0000000000005deb      0x3a5 /local/gerum/speech_recognition/external/hannah-tvm/tmp/TGC-VP/fw/bsp/env/tgfs-vp/init.o
 .debug_line    0x0000000000006190       0x3e delete.o
 .debug_line    0x00000000000061ce      0x320 crt/src/runtime/crt/microtvm_rpc_common/frame_buffer.o
 .debug_line    0x00000000000064ee      0xa33 crt/src/runtime/crt/microtvm_rpc_common/framing.o
 .debug_line    0x0000000000006f21      0x7df crt/src/runtime/crt/microtvm_rpc_common/session.o
 .debug_line    0x0000000000007700      0x242 crt/src/runtime/crt/microtvm_rpc_common/write_stream.o
 .debug_line    0x0000000000007942     0x22d3 crt/src/runtime/crt/microtvm_rpc_server/rpc_server.o
 .debug_line    0x0000000000009c15       0xb6 ./libwrap.a(malloc.o)
 .debug_line    0x0000000000009ccb      0x238 ./libwrap.a(write.o)
 .debug_line    0x0000000000009f03       0xf1 ./libwrap.a(isatty.o)
 .debug_line    0x0000000000009ff4       0xfb ./libwrap.a(sbrk.o)
 .debug_line    0x000000000000a0ef       0xee ./libwrap.a(_exit.o)
 .debug_line    0x000000000000a1dd      0x1f4 ./libwrap.a(puts.o)
 .debug_line    0x000000000000a3d1      0x192 ./libwrap.a(write_hex.o)
 .debug_line    0x000000000000a563      0x511 ./libwrap.a(printf.o)
 .debug_line    0x000000000000aa74      0x183 ./libwrap.a(lseek.o)
 .debug_line    0x000000000000abf7      0x229 ./libwrap.a(read.o)
 .debug_line    0x000000000000ae20      0x22f ./libwrap.a(fstat.o)
 .debug_line    0x000000000000b04f      0x160 ./libwrap.a(close.o)
 .debug_line    0x000000000000b1af       0x95 ./libwrap.a(getpid.o)
 .debug_line    0x000000000000b244      0x15f ./libwrap.a(kill.o)
 .debug_line    0x000000000000b3a3      0x4a6 /opt/pulp-riscv-gcc/bin/../lib/gcc/riscv32-unknown-elf/7.1.1/libgcc.a(_divdi3.o)
 .debug_line    0x000000000000b849      0x458 /opt/pulp-riscv-gcc/bin/../lib/gcc/riscv32-unknown-elf/7.1.1/libgcc.a(_udivdi3.o)
 .debug_line    0x000000000000bca1      0x44b /opt/pulp-riscv-gcc/bin/../lib/gcc/riscv32-unknown-elf/7.1.1/libgcc.a(_umoddi3.o)
 .debug_line    0x000000000000c0ec      0x703 /opt/pulp-riscv-gcc/bin/../lib/gcc/riscv32-unknown-elf/7.1.1/libgcc.a(adddf3.o)
 .debug_line    0x000000000000c7ef      0x518 /opt/pulp-riscv-gcc/bin/../lib/gcc/riscv32-unknown-elf/7.1.1/libgcc.a(divdf3.o)
 .debug_line    0x000000000000cd07      0x223 /opt/pulp-riscv-gcc/bin/../lib/gcc/riscv32-unknown-elf/7.1.1/libgcc.a(ledf2.o)
 .debug_line    0x000000000000cf2a      0x39a /opt/pulp-riscv-gcc/bin/../lib/gcc/riscv32-unknown-elf/7.1.1/libgcc.a(muldf3.o)
 .debug_line    0x000000000000d2c4      0x163 /opt/pulp-riscv-gcc/bin/../lib/gcc/riscv32-unknown-elf/7.1.1/libgcc.a(floatsidf.o)
 .debug_line    0x000000000000d427      0x1cf /opt/pulp-riscv-gcc/bin/../lib/gcc/riscv32-unknown-elf/7.1.1/libgcc.a(eqtf2.o)
 .debug_line    0x000000000000d5f6      0x24e /opt/pulp-riscv-gcc/bin/../lib/gcc/riscv32-unknown-elf/7.1.1/libgcc.a(getf2.o)
 .debug_line    0x000000000000d844      0x24e /opt/pulp-riscv-gcc/bin/../lib/gcc/riscv32-unknown-elf/7.1.1/libgcc.a(letf2.o)
 .debug_line    0x000000000000da92      0x6b3 /opt/pulp-riscv-gcc/bin/../lib/gcc/riscv32-unknown-elf/7.1.1/libgcc.a(multf3.o)
 .debug_line    0x000000000000e145      0xbd3 /opt/pulp-riscv-gcc/bin/../lib/gcc/riscv32-unknown-elf/7.1.1/libgcc.a(subtf3.o)
 .debug_line    0x000000000000ed18      0x1a1 /opt/pulp-riscv-gcc/bin/../lib/gcc/riscv32-unknown-elf/7.1.1/libgcc.a(fixtfsi.o)
 .debug_line    0x000000000000eeb9      0x18f /opt/pulp-riscv-gcc/bin/../lib/gcc/riscv32-unknown-elf/7.1.1/libgcc.a(floatsitf.o)
 .debug_line    0x000000000000f048      0x235 /opt/pulp-riscv-gcc/bin/../lib/gcc/riscv32-unknown-elf/7.1.1/libgcc.a(extenddftf2.o)
 .debug_line    0x000000000000f27d      0x2b7 /opt/pulp-riscv-gcc/bin/../lib/gcc/riscv32-unknown-elf/7.1.1/libgcc.a(trunctfdf2.o)
 .debug_line    0x000000000000f534       0xc0 /opt/pulp-riscv-gcc/bin/../lib/gcc/riscv32-unknown-elf/7.1.1/libgcc.a(muldi3.o)
 .debug_line    0x000000000000f5f4      0x156 /opt/pulp-riscv-gcc/bin/../lib/gcc/riscv32-unknown-elf/7.1.1/libgcc.a(multi3.o)
 .debug_line    0x000000000000f74a      0x196 /opt/pulp-riscv-gcc/bin/../lib/gcc/riscv32-unknown-elf/7.1.1/libgcc.a(div.o)
 .debug_line    0x000000000000f8e0      0x2e0 /opt/pulp-riscv-gcc/bin/../lib/gcc/riscv32-unknown-elf/7.1.1/libgcc.a(_clz.o)
 .debug_line    0x000000000000fbc0      0x328 /opt/pulp-riscv-gcc/bin/../lib/gcc/riscv32-unknown-elf/7.1.1/libgcc.a(_clzsi2.o)

.debug_info     0x0000000000000000    0x2927e
 .debug_info    0x0000000000000000       0xca /local/gerum/speech_recognition/external/hannah-tvm/tmp/TGC-VP/fw/bsp/env/start.o
 .debug_info    0x00000000000000ca       0xca /local/gerum/speech_recognition/external/hannah-tvm/tmp/TGC-VP/fw/bsp/env/entry.o
 .debug_info    0x0000000000000194      0xcff circular_buffer.o
 .debug_info    0x0000000000000e93       0x84 cxx_support.o
 .debug_info    0x0000000000000f17      0xed8 main.o
 .debug_info    0x0000000000001def      0xc43 crt/src/runtime/crt/common/crt_backend_api.o
 .debug_info    0x0000000000002a32     0x1f72 crt/src/runtime/crt/common/crt_runtime_api.o
 .debug_info    0x00000000000049a4      0xe51 crt/src/runtime/crt/common/func_registry.o
 .debug_info    0x00000000000057f5      0xeec crt/src/runtime/crt/common/ndarray.o
 .debug_info    0x00000000000066e1      0xe71 crt/src/runtime/crt/common/packed_func.o
 .debug_info    0x0000000000007552     0x2608 crt/src/runtime/crt/graph_executor/graph_executor.o
 .debug_info    0x0000000000009b5a     0x147c crt/src/runtime/crt/graph_executor/load_json.o
 .debug_info    0x000000000000afd6     0x19fd crt/src/runtime/crt/graph_executor_module/graph_executor_module.o
 .debug_info    0x000000000000c9d3     0x144d crt/src/runtime/crt/memory/page_allocator.o
 .debug_info    0x000000000000de20      0x439 crt/src/runtime/crt/memory/stack_allocator.o
 .debug_info    0x000000000000e259      0xaa1 crt/src/runtime/crt/microtvm_rpc_common/crcccitt.o
 .debug_info    0x000000000000ecfa      0xb9a /local/gerum/speech_recognition/external/hannah-tvm/tmp/TGC-VP/fw/bsp/env/tgfs-vp/init.o
 .debug_info    0x000000000000f894       0xa4 delete.o
 .debug_info    0x000000000000f938     0x10b9 crt/src/runtime/crt/microtvm_rpc_common/frame_buffer.o
 .debug_info    0x00000000000109f1     0x1914 crt/src/runtime/crt/microtvm_rpc_common/framing.o
 .debug_info    0x0000000000012305     0x1d56 crt/src/runtime/crt/microtvm_rpc_common/session.o
 .debug_info    0x000000000001405b      0x3aa crt/src/runtime/crt/microtvm_rpc_common/write_stream.o
 .debug_info    0x0000000000014405     0x601d crt/src/runtime/crt/microtvm_rpc_server/rpc_server.o
 .debug_info    0x000000000001a422       0xa4 ./libwrap.a(malloc.o)
 .debug_info    0x000000000001a4c6      0x9e8 ./libwrap.a(write.o)
 .debug_info    0x000000000001aeae       0xeb ./libwrap.a(isatty.o)
 .debug_info    0x000000000001af99       0xb6 ./libwrap.a(sbrk.o)
 .debug_info    0x000000000001b04f      0x114 ./libwrap.a(_exit.o)
 .debug_info    0x000000000001b163      0x940 ./libwrap.a(puts.o)
 .debug_info    0x000000000001baa3      0x14b ./libwrap.a(write_hex.o)
 .debug_info    0x000000000001bbee      0xc2a ./libwrap.a(printf.o)
 .debug_info    0x000000000001c818      0x985 ./libwrap.a(lseek.o)
 .debug_info    0x000000000001d19d      0xa05 ./libwrap.a(read.o)
 .debug_info    0x000000000001dba2      0xb5c ./libwrap.a(fstat.o)
 .debug_info    0x000000000001e6fe      0x90b ./libwrap.a(close.o)
 .debug_info    0x000000000001f009       0x42 ./libwrap.a(getpid.o)
 .debug_info    0x000000000001f04b      0x91a ./libwrap.a(kill.o)
 .debug_info    0x000000000001f965     0x115c /opt/pulp-riscv-gcc/bin/../lib/gcc/riscv32-unknown-elf/7.1.1/libgcc.a(_divdi3.o)
 .debug_info    0x0000000000020ac1     0x112a /opt/pulp-riscv-gcc/bin/../lib/gcc/riscv32-unknown-elf/7.1.1/libgcc.a(_udivdi3.o)
 .debug_info    0x0000000000021beb     0x1187 /opt/pulp-riscv-gcc/bin/../lib/gcc/riscv32-unknown-elf/7.1.1/libgcc.a(_umoddi3.o)
 .debug_info    0x0000000000022d72      0x564 /opt/pulp-riscv-gcc/bin/../lib/gcc/riscv32-unknown-elf/7.1.1/libgcc.a(adddf3.o)
 .debug_info    0x00000000000232d6      0x6d6 /opt/pulp-riscv-gcc/bin/../lib/gcc/riscv32-unknown-elf/7.1.1/libgcc.a(divdf3.o)
 .debug_info    0x00000000000239ac      0x266 /opt/pulp-riscv-gcc/bin/../lib/gcc/riscv32-unknown-elf/7.1.1/libgcc.a(ledf2.o)
 .debug_info    0x0000000000023c12      0x701 /opt/pulp-riscv-gcc/bin/../lib/gcc/riscv32-unknown-elf/7.1.1/libgcc.a(muldf3.o)
 .debug_info    0x0000000000024313      0x297 /opt/pulp-riscv-gcc/bin/../lib/gcc/riscv32-unknown-elf/7.1.1/libgcc.a(floatsidf.o)
 .debug_info    0x00000000000245aa      0x276 /opt/pulp-riscv-gcc/bin/../lib/gcc/riscv32-unknown-elf/7.1.1/libgcc.a(eqtf2.o)
 .debug_info    0x0000000000024820      0x272 /opt/pulp-riscv-gcc/bin/../lib/gcc/riscv32-unknown-elf/7.1.1/libgcc.a(getf2.o)
 .debug_info    0x0000000000024a92      0x272 /opt/pulp-riscv-gcc/bin/../lib/gcc/riscv32-unknown-elf/7.1.1/libgcc.a(letf2.o)
 .debug_info    0x0000000000024d04     0x116d /opt/pulp-riscv-gcc/bin/../lib/gcc/riscv32-unknown-elf/7.1.1/libgcc.a(multf3.o)
 .debug_info    0x0000000000025e71      0xcbe /opt/pulp-riscv-gcc/bin/../lib/gcc/riscv32-unknown-elf/7.1.1/libgcc.a(subtf3.o)
 .debug_info    0x0000000000026b2f      0x29d /opt/pulp-riscv-gcc/bin/../lib/gcc/riscv32-unknown-elf/7.1.1/libgcc.a(fixtfsi.o)
 .debug_info    0x0000000000026dcc      0x38d /opt/pulp-riscv-gcc/bin/../lib/gcc/riscv32-unknown-elf/7.1.1/libgcc.a(floatsitf.o)
 .debug_info    0x0000000000027159      0x3b8 /opt/pulp-riscv-gcc/bin/../lib/gcc/riscv32-unknown-elf/7.1.1/libgcc.a(extenddftf2.o)
 .debug_info    0x0000000000027511      0x4f3 /opt/pulp-riscv-gcc/bin/../lib/gcc/riscv32-unknown-elf/7.1.1/libgcc.a(trunctfdf2.o)
 .debug_info    0x0000000000027a04       0xf4 /opt/pulp-riscv-gcc/bin/../lib/gcc/riscv32-unknown-elf/7.1.1/libgcc.a(muldi3.o)
 .debug_info    0x0000000000027af8       0xf4 /opt/pulp-riscv-gcc/bin/../lib/gcc/riscv32-unknown-elf/7.1.1/libgcc.a(multi3.o)
 .debug_info    0x0000000000027bec       0xf1 /opt/pulp-riscv-gcc/bin/../lib/gcc/riscv32-unknown-elf/7.1.1/libgcc.a(div.o)
 .debug_info    0x0000000000027cdd      0xa9d /opt/pulp-riscv-gcc/bin/../lib/gcc/riscv32-unknown-elf/7.1.1/libgcc.a(_clz.o)
 .debug_info    0x000000000002877a      0xb04 /opt/pulp-riscv-gcc/bin/../lib/gcc/riscv32-unknown-elf/7.1.1/libgcc.a(_clzsi2.o)

.debug_abbrev   0x0000000000000000     0x6f3a
 .debug_abbrev  0x0000000000000000       0x14 /local/gerum/speech_recognition/external/hannah-tvm/tmp/TGC-VP/fw/bsp/env/start.o
 .debug_abbrev  0x0000000000000014       0x14 /local/gerum/speech_recognition/external/hannah-tvm/tmp/TGC-VP/fw/bsp/env/entry.o
 .debug_abbrev  0x0000000000000028      0x247 circular_buffer.o
 .debug_abbrev  0x000000000000026f       0x40 cxx_support.o
 .debug_abbrev  0x00000000000002af      0x2f5 main.o
 .debug_abbrev  0x00000000000005a4      0x208 crt/src/runtime/crt/common/crt_backend_api.o
 .debug_abbrev  0x00000000000007ac      0x383 crt/src/runtime/crt/common/crt_runtime_api.o
 .debug_abbrev  0x0000000000000b2f      0x21e crt/src/runtime/crt/common/func_registry.o
 .debug_abbrev  0x0000000000000d4d      0x224 crt/src/runtime/crt/common/ndarray.o
 .debug_abbrev  0x0000000000000f71      0x242 crt/src/runtime/crt/common/packed_func.o
 .debug_abbrev  0x00000000000011b3      0x30c crt/src/runtime/crt/graph_executor/graph_executor.o
 .debug_abbrev  0x00000000000014bf      0x2ff crt/src/runtime/crt/graph_executor/load_json.o
 .debug_abbrev  0x00000000000017be      0x26a crt/src/runtime/crt/graph_executor_module/graph_executor_module.o
 .debug_abbrev  0x0000000000001a28      0x2fc crt/src/runtime/crt/memory/page_allocator.o
 .debug_abbrev  0x0000000000001d24      0x124 crt/src/runtime/crt/memory/stack_allocator.o
 .debug_abbrev  0x0000000000001e48      0x23e crt/src/runtime/crt/microtvm_rpc_common/crcccitt.o
 .debug_abbrev  0x0000000000002086      0x2d3 /local/gerum/speech_recognition/external/hannah-tvm/tmp/TGC-VP/fw/bsp/env/tgfs-vp/init.o
 .debug_abbrev  0x0000000000002359       0x5b delete.o
 .debug_abbrev  0x00000000000023b4      0x337 crt/src/runtime/crt/microtvm_rpc_common/frame_buffer.o
 .debug_abbrev  0x00000000000026eb      0x480 crt/src/runtime/crt/microtvm_rpc_common/framing.o
 .debug_abbrev  0x0000000000002b6b      0x56e crt/src/runtime/crt/microtvm_rpc_common/session.o
 .debug_abbrev  0x00000000000030d9      0x1d9 crt/src/runtime/crt/microtvm_rpc_common/write_stream.o
 .debug_abbrev  0x00000000000032b2      0x8f5 crt/src/runtime/crt/microtvm_rpc_server/rpc_server.o
 .debug_abbrev  0x0000000000003ba7       0x96 ./libwrap.a(malloc.o)
 .debug_abbrev  0x0000000000003c3d      0x203 ./libwrap.a(write.o)
 .debug_abbrev  0x0000000000003e40       0x6d ./libwrap.a(isatty.o)
 .debug_abbrev  0x0000000000003ead       0xa0 ./libwrap.a(sbrk.o)
 .debug_abbrev  0x0000000000003f4d       0x95 ./libwrap.a(_exit.o)
 .debug_abbrev  0x0000000000003fe2      0x1bd ./libwrap.a(puts.o)
 .debug_abbrev  0x000000000000419f       0x9f ./libwrap.a(write_hex.o)
 .debug_abbrev  0x000000000000423e      0x2c9 ./libwrap.a(printf.o)
 .debug_abbrev  0x0000000000004507      0x1d7 ./libwrap.a(lseek.o)
 .debug_abbrev  0x00000000000046de      0x1ed ./libwrap.a(read.o)
 .debug_abbrev  0x00000000000048cb      0x1d7 ./libwrap.a(fstat.o)
 .debug_abbrev  0x0000000000004aa2      0x1d7 ./libwrap.a(close.o)
 .debug_abbrev  0x0000000000004c79       0x39 ./libwrap.a(getpid.o)
 .debug_abbrev  0x0000000000004cb2      0x1d7 ./libwrap.a(kill.o)
 .debug_abbrev  0x0000000000004e89      0x2a8 /opt/pulp-riscv-gcc/bin/../lib/gcc/riscv32-unknown-elf/7.1.1/libgcc.a(_divdi3.o)
 .debug_abbrev  0x0000000000005131      0x292 /opt/pulp-riscv-gcc/bin/../lib/gcc/riscv32-unknown-elf/7.1.1/libgcc.a(_udivdi3.o)
 .debug_abbrev  0x00000000000053c3      0x2ac /opt/pulp-riscv-gcc/bin/../lib/gcc/riscv32-unknown-elf/7.1.1/libgcc.a(_umoddi3.o)
 .debug_abbrev  0x000000000000566f      0x17d /opt/pulp-riscv-gcc/bin/../lib/gcc/riscv32-unknown-elf/7.1.1/libgcc.a(adddf3.o)
 .debug_abbrev  0x00000000000057ec      0x167 /opt/pulp-riscv-gcc/bin/../lib/gcc/riscv32-unknown-elf/7.1.1/libgcc.a(divdf3.o)
 .debug_abbrev  0x0000000000005953      0x175 /opt/pulp-riscv-gcc/bin/../lib/gcc/riscv32-unknown-elf/7.1.1/libgcc.a(ledf2.o)
 .debug_abbrev  0x0000000000005ac8      0x16e /opt/pulp-riscv-gcc/bin/../lib/gcc/riscv32-unknown-elf/7.1.1/libgcc.a(muldf3.o)
 .debug_abbrev  0x0000000000005c36      0x158 /opt/pulp-riscv-gcc/bin/../lib/gcc/riscv32-unknown-elf/7.1.1/libgcc.a(floatsidf.o)
 .debug_abbrev  0x0000000000005d8e      0x169 /opt/pulp-riscv-gcc/bin/../lib/gcc/riscv32-unknown-elf/7.1.1/libgcc.a(eqtf2.o)
 .debug_abbrev  0x0000000000005ef7      0x17a /opt/pulp-riscv-gcc/bin/../lib/gcc/riscv32-unknown-elf/7.1.1/libgcc.a(getf2.o)
 .debug_abbrev  0x0000000000006071      0x17a /opt/pulp-riscv-gcc/bin/../lib/gcc/riscv32-unknown-elf/7.1.1/libgcc.a(letf2.o)
 .debug_abbrev  0x00000000000061eb      0x186 /opt/pulp-riscv-gcc/bin/../lib/gcc/riscv32-unknown-elf/7.1.1/libgcc.a(multf3.o)
 .debug_abbrev  0x0000000000006371      0x197 /opt/pulp-riscv-gcc/bin/../lib/gcc/riscv32-unknown-elf/7.1.1/libgcc.a(subtf3.o)
 .debug_abbrev  0x0000000000006508      0x188 /opt/pulp-riscv-gcc/bin/../lib/gcc/riscv32-unknown-elf/7.1.1/libgcc.a(fixtfsi.o)
 .debug_abbrev  0x0000000000006690      0x186 /opt/pulp-riscv-gcc/bin/../lib/gcc/riscv32-unknown-elf/7.1.1/libgcc.a(floatsitf.o)
 .debug_abbrev  0x0000000000006816      0x187 /opt/pulp-riscv-gcc/bin/../lib/gcc/riscv32-unknown-elf/7.1.1/libgcc.a(extenddftf2.o)
 .debug_abbrev  0x000000000000699d      0x193 /opt/pulp-riscv-gcc/bin/../lib/gcc/riscv32-unknown-elf/7.1.1/libgcc.a(trunctfdf2.o)
 .debug_abbrev  0x0000000000006b30       0x14 /opt/pulp-riscv-gcc/bin/../lib/gcc/riscv32-unknown-elf/7.1.1/libgcc.a(muldi3.o)
 .debug_abbrev  0x0000000000006b44       0x14 /opt/pulp-riscv-gcc/bin/../lib/gcc/riscv32-unknown-elf/7.1.1/libgcc.a(multi3.o)
 .debug_abbrev  0x0000000000006b58       0x14 /opt/pulp-riscv-gcc/bin/../lib/gcc/riscv32-unknown-elf/7.1.1/libgcc.a(div.o)
 .debug_abbrev  0x0000000000006b6c      0x1be /opt/pulp-riscv-gcc/bin/../lib/gcc/riscv32-unknown-elf/7.1.1/libgcc.a(_clz.o)
 .debug_abbrev  0x0000000000006d2a      0x210 /opt/pulp-riscv-gcc/bin/../lib/gcc/riscv32-unknown-elf/7.1.1/libgcc.a(_clzsi2.o)

.debug_aranges  0x0000000000000000      0xb88
 .debug_aranges
                0x0000000000000000       0x20 /local/gerum/speech_recognition/external/hannah-tvm/tmp/TGC-VP/fw/bsp/env/start.o
 .debug_aranges
                0x0000000000000020       0x20 /local/gerum/speech_recognition/external/hannah-tvm/tmp/TGC-VP/fw/bsp/env/entry.o
 .debug_aranges
                0x0000000000000040       0x20 circular_buffer.o
 .debug_aranges
                0x0000000000000060       0x20 cxx_support.o
 .debug_aranges
                0x0000000000000080       0x20 main.o
 .debug_aranges
                0x00000000000000a0       0x20 crt/src/runtime/crt/common/crt_backend_api.o
 .debug_aranges
                0x00000000000000c0       0x20 crt/src/runtime/crt/common/crt_runtime_api.o
 .debug_aranges
                0x00000000000000e0       0x20 crt/src/runtime/crt/common/func_registry.o
 .debug_aranges
                0x0000000000000100       0x20 crt/src/runtime/crt/common/ndarray.o
 .debug_aranges
                0x0000000000000120       0x20 crt/src/runtime/crt/common/packed_func.o
 .debug_aranges
                0x0000000000000140       0x20 crt/src/runtime/crt/graph_executor/graph_executor.o
 .debug_aranges
                0x0000000000000160       0x20 crt/src/runtime/crt/graph_executor/load_json.o
 .debug_aranges
                0x0000000000000180       0x20 crt/src/runtime/crt/graph_executor_module/graph_executor_module.o
 .debug_aranges
                0x00000000000001a0       0x20 crt/src/runtime/crt/memory/page_allocator.o
 .debug_aranges
                0x00000000000001c0       0x20 crt/src/runtime/crt/memory/stack_allocator.o
 .debug_aranges
                0x00000000000001e0       0x20 crt/src/runtime/crt/microtvm_rpc_common/crcccitt.o
 .debug_aranges
                0x0000000000000200       0x20 /local/gerum/speech_recognition/external/hannah-tvm/tmp/TGC-VP/fw/bsp/env/tgfs-vp/init.o
 .debug_aranges
                0x0000000000000220       0x20 delete.o
 .debug_aranges
                0x0000000000000240       0x20 crt/src/runtime/crt/microtvm_rpc_common/frame_buffer.o
 .debug_aranges
                0x0000000000000260       0x28 crt/src/runtime/crt/microtvm_rpc_common/framing.o
 .debug_aranges
                0x0000000000000288       0x50 crt/src/runtime/crt/microtvm_rpc_common/session.o
 .debug_aranges
                0x00000000000002d8       0x20 crt/src/runtime/crt/microtvm_rpc_common/write_stream.o
 .debug_aranges
                0x00000000000002f8      0x418 crt/src/runtime/crt/microtvm_rpc_server/rpc_server.o
 .debug_aranges
                0x0000000000000710       0x20 ./libwrap.a(malloc.o)
 .debug_aranges
                0x0000000000000730       0x20 ./libwrap.a(write.o)
 .debug_aranges
                0x0000000000000750       0x20 ./libwrap.a(isatty.o)
 .debug_aranges
                0x0000000000000770       0x20 ./libwrap.a(sbrk.o)
 .debug_aranges
                0x0000000000000790       0x20 ./libwrap.a(_exit.o)
 .debug_aranges
                0x00000000000007b0       0x20 ./libwrap.a(puts.o)
 .debug_aranges
                0x00000000000007d0       0x20 ./libwrap.a(write_hex.o)
 .debug_aranges
                0x00000000000007f0       0x20 ./libwrap.a(printf.o)
 .debug_aranges
                0x0000000000000810       0x20 ./libwrap.a(lseek.o)
 .debug_aranges
                0x0000000000000830       0x20 ./libwrap.a(read.o)
 .debug_aranges
                0x0000000000000850       0x20 ./libwrap.a(fstat.o)
 .debug_aranges
                0x0000000000000870       0x20 ./libwrap.a(close.o)
 .debug_aranges
                0x0000000000000890       0x20 ./libwrap.a(getpid.o)
 .debug_aranges
                0x00000000000008b0       0x20 ./libwrap.a(kill.o)
 .debug_aranges
                0x00000000000008d0       0x20 /opt/pulp-riscv-gcc/bin/../lib/gcc/riscv32-unknown-elf/7.1.1/libgcc.a(_divdi3.o)
 .debug_aranges
                0x00000000000008f0       0x20 /opt/pulp-riscv-gcc/bin/../lib/gcc/riscv32-unknown-elf/7.1.1/libgcc.a(_udivdi3.o)
 .debug_aranges
                0x0000000000000910       0x20 /opt/pulp-riscv-gcc/bin/../lib/gcc/riscv32-unknown-elf/7.1.1/libgcc.a(_umoddi3.o)
 .debug_aranges
                0x0000000000000930       0x20 /opt/pulp-riscv-gcc/bin/../lib/gcc/riscv32-unknown-elf/7.1.1/libgcc.a(adddf3.o)
 .debug_aranges
                0x0000000000000950       0x20 /opt/pulp-riscv-gcc/bin/../lib/gcc/riscv32-unknown-elf/7.1.1/libgcc.a(divdf3.o)
 .debug_aranges
                0x0000000000000970       0x20 /opt/pulp-riscv-gcc/bin/../lib/gcc/riscv32-unknown-elf/7.1.1/libgcc.a(ledf2.o)
 .debug_aranges
                0x0000000000000990       0x20 /opt/pulp-riscv-gcc/bin/../lib/gcc/riscv32-unknown-elf/7.1.1/libgcc.a(muldf3.o)
 .debug_aranges
                0x00000000000009b0       0x20 /opt/pulp-riscv-gcc/bin/../lib/gcc/riscv32-unknown-elf/7.1.1/libgcc.a(floatsidf.o)
 .debug_aranges
                0x00000000000009d0       0x20 /opt/pulp-riscv-gcc/bin/../lib/gcc/riscv32-unknown-elf/7.1.1/libgcc.a(eqtf2.o)
 .debug_aranges
                0x00000000000009f0       0x20 /opt/pulp-riscv-gcc/bin/../lib/gcc/riscv32-unknown-elf/7.1.1/libgcc.a(getf2.o)
 .debug_aranges
                0x0000000000000a10       0x20 /opt/pulp-riscv-gcc/bin/../lib/gcc/riscv32-unknown-elf/7.1.1/libgcc.a(letf2.o)
 .debug_aranges
                0x0000000000000a30       0x20 /opt/pulp-riscv-gcc/bin/../lib/gcc/riscv32-unknown-elf/7.1.1/libgcc.a(multf3.o)
 .debug_aranges
                0x0000000000000a50       0x20 /opt/pulp-riscv-gcc/bin/../lib/gcc/riscv32-unknown-elf/7.1.1/libgcc.a(subtf3.o)
 .debug_aranges
                0x0000000000000a70       0x20 /opt/pulp-riscv-gcc/bin/../lib/gcc/riscv32-unknown-elf/7.1.1/libgcc.a(fixtfsi.o)
 .debug_aranges
                0x0000000000000a90       0x20 /opt/pulp-riscv-gcc/bin/../lib/gcc/riscv32-unknown-elf/7.1.1/libgcc.a(floatsitf.o)
 .debug_aranges
                0x0000000000000ab0       0x20 /opt/pulp-riscv-gcc/bin/../lib/gcc/riscv32-unknown-elf/7.1.1/libgcc.a(extenddftf2.o)
 .debug_aranges
                0x0000000000000ad0       0x20 /opt/pulp-riscv-gcc/bin/../lib/gcc/riscv32-unknown-elf/7.1.1/libgcc.a(trunctfdf2.o)
 .debug_aranges
                0x0000000000000af0       0x20 /opt/pulp-riscv-gcc/bin/../lib/gcc/riscv32-unknown-elf/7.1.1/libgcc.a(muldi3.o)
 .debug_aranges
                0x0000000000000b10       0x20 /opt/pulp-riscv-gcc/bin/../lib/gcc/riscv32-unknown-elf/7.1.1/libgcc.a(multi3.o)
 .debug_aranges
                0x0000000000000b30       0x20 /opt/pulp-riscv-gcc/bin/../lib/gcc/riscv32-unknown-elf/7.1.1/libgcc.a(div.o)
 .debug_aranges
                0x0000000000000b50       0x18 /opt/pulp-riscv-gcc/bin/../lib/gcc/riscv32-unknown-elf/7.1.1/libgcc.a(_clz.o)
 .debug_aranges
                0x0000000000000b68       0x20 /opt/pulp-riscv-gcc/bin/../lib/gcc/riscv32-unknown-elf/7.1.1/libgcc.a(_clzsi2.o)

.debug_frame    0x0000000000000000     0x5fcc
 .debug_frame   0x0000000000000000      0x31c circular_buffer.o
 .debug_frame   0x000000000000031c       0x38 cxx_support.o
 .debug_frame   0x0000000000000354      0x300 main.o
 .debug_frame   0x0000000000000654      0x100 crt/src/runtime/crt/common/crt_backend_api.o
 .debug_frame   0x0000000000000754      0x828 crt/src/runtime/crt/common/crt_runtime_api.o
 .debug_frame   0x0000000000000f7c      0x12c crt/src/runtime/crt/common/func_registry.o
 .debug_frame   0x00000000000010a8      0x21c crt/src/runtime/crt/common/ndarray.o
 .debug_frame   0x00000000000012c4      0x178 crt/src/runtime/crt/common/packed_func.o
 .debug_frame   0x000000000000143c      0x5f4 crt/src/runtime/crt/graph_executor/graph_executor.o
 .debug_frame   0x0000000000001a30      0x4b8 crt/src/runtime/crt/graph_executor/load_json.o
 .debug_frame   0x0000000000001ee8      0x280 crt/src/runtime/crt/graph_executor_module/graph_executor_module.o
 .debug_frame   0x0000000000002168      0x2c0 crt/src/runtime/crt/memory/page_allocator.o
 .debug_frame   0x0000000000002428      0x124 crt/src/runtime/crt/memory/stack_allocator.o
 .debug_frame   0x000000000000254c      0x12c crt/src/runtime/crt/microtvm_rpc_common/crcccitt.o
 .debug_frame   0x0000000000002678      0x2c4 /local/gerum/speech_recognition/external/hannah-tvm/tmp/TGC-VP/fw/bsp/env/tgfs-vp/init.o
 .debug_frame   0x000000000000293c       0x44 delete.o
 .debug_frame   0x0000000000002980       0xbc crt/src/runtime/crt/microtvm_rpc_common/frame_buffer.o
 .debug_frame   0x0000000000002a3c      0x4a0 crt/src/runtime/crt/microtvm_rpc_common/framing.o
 .debug_frame   0x0000000000002edc      0x554 crt/src/runtime/crt/microtvm_rpc_common/session.o
 .debug_frame   0x0000000000003430       0xbc crt/src/runtime/crt/microtvm_rpc_common/write_stream.o
 .debug_frame   0x00000000000034ec     0x1e6c crt/src/runtime/crt/microtvm_rpc_server/rpc_server.o
 .debug_frame   0x0000000000005358       0x80 ./libwrap.a(malloc.o)
 .debug_frame   0x00000000000053d8       0x80 ./libwrap.a(write.o)
 .debug_frame   0x0000000000005458       0x44 ./libwrap.a(isatty.o)
 .debug_frame   0x000000000000549c       0x44 ./libwrap.a(sbrk.o)
 .debug_frame   0x00000000000054e0       0x38 ./libwrap.a(_exit.o)
 .debug_frame   0x0000000000005518       0x44 ./libwrap.a(puts.o)
 .debug_frame   0x000000000000555c       0x4c ./libwrap.a(write_hex.o)
 .debug_frame   0x00000000000055a8      0x1f0 ./libwrap.a(printf.o)
 .debug_frame   0x0000000000005798       0x80 ./libwrap.a(lseek.o)
 .debug_frame   0x0000000000005818       0x80 ./libwrap.a(read.o)
 .debug_frame   0x0000000000005898       0x80 ./libwrap.a(fstat.o)
 .debug_frame   0x0000000000005918       0x80 ./libwrap.a(close.o)
 .debug_frame   0x0000000000005998       0x44 ./libwrap.a(getpid.o)
 .debug_frame   0x00000000000059dc       0x80 ./libwrap.a(kill.o)
 .debug_frame   0x0000000000005a5c       0x20 /opt/pulp-riscv-gcc/bin/../lib/gcc/riscv32-unknown-elf/7.1.1/libgcc.a(_divdi3.o)
 .debug_frame   0x0000000000005a7c       0x20 /opt/pulp-riscv-gcc/bin/../lib/gcc/riscv32-unknown-elf/7.1.1/libgcc.a(_udivdi3.o)
 .debug_frame   0x0000000000005a9c       0x20 /opt/pulp-riscv-gcc/bin/../lib/gcc/riscv32-unknown-elf/7.1.1/libgcc.a(_umoddi3.o)
 .debug_frame   0x0000000000005abc       0x68 /opt/pulp-riscv-gcc/bin/../lib/gcc/riscv32-unknown-elf/7.1.1/libgcc.a(adddf3.o)
 .debug_frame   0x0000000000005b24       0x88 /opt/pulp-riscv-gcc/bin/../lib/gcc/riscv32-unknown-elf/7.1.1/libgcc.a(divdf3.o)
 .debug_frame   0x0000000000005bac       0x20 /opt/pulp-riscv-gcc/bin/../lib/gcc/riscv32-unknown-elf/7.1.1/libgcc.a(ledf2.o)
 .debug_frame   0x0000000000005bcc       0x88 /opt/pulp-riscv-gcc/bin/../lib/gcc/riscv32-unknown-elf/7.1.1/libgcc.a(muldf3.o)
 .debug_frame   0x0000000000005c54       0x54 /opt/pulp-riscv-gcc/bin/../lib/gcc/riscv32-unknown-elf/7.1.1/libgcc.a(floatsidf.o)
 .debug_frame   0x0000000000005ca8       0x38 /opt/pulp-riscv-gcc/bin/../lib/gcc/riscv32-unknown-elf/7.1.1/libgcc.a(eqtf2.o)
 .debug_frame   0x0000000000005ce0       0x38 /opt/pulp-riscv-gcc/bin/../lib/gcc/riscv32-unknown-elf/7.1.1/libgcc.a(getf2.o)
 .debug_frame   0x0000000000005d18       0x38 /opt/pulp-riscv-gcc/bin/../lib/gcc/riscv32-unknown-elf/7.1.1/libgcc.a(letf2.o)
 .debug_frame   0x0000000000005d50       0xb4 /opt/pulp-riscv-gcc/bin/../lib/gcc/riscv32-unknown-elf/7.1.1/libgcc.a(multf3.o)
 .debug_frame   0x0000000000005e04       0x84 /opt/pulp-riscv-gcc/bin/../lib/gcc/riscv32-unknown-elf/7.1.1/libgcc.a(subtf3.o)
 .debug_frame   0x0000000000005e88       0x38 /opt/pulp-riscv-gcc/bin/../lib/gcc/riscv32-unknown-elf/7.1.1/libgcc.a(fixtfsi.o)
 .debug_frame   0x0000000000005ec0       0x5c /opt/pulp-riscv-gcc/bin/../lib/gcc/riscv32-unknown-elf/7.1.1/libgcc.a(floatsitf.o)
 .debug_frame   0x0000000000005f1c       0x58 /opt/pulp-riscv-gcc/bin/../lib/gcc/riscv32-unknown-elf/7.1.1/libgcc.a(extenddftf2.o)
 .debug_frame   0x0000000000005f74       0x38 /opt/pulp-riscv-gcc/bin/../lib/gcc/riscv32-unknown-elf/7.1.1/libgcc.a(trunctfdf2.o)
 .debug_frame   0x0000000000005fac       0x20 /opt/pulp-riscv-gcc/bin/../lib/gcc/riscv32-unknown-elf/7.1.1/libgcc.a(_clzsi2.o)

.debug_str      0x0000000000000000     0xa65e
 .debug_str     0x0000000000000000      0x5d6 circular_buffer.o
                                        0x6ac (size before relaxing)
 .debug_str     0x00000000000005d6       0x21 cxx_support.o
                                        0x148 (size before relaxing)
 .debug_str     0x00000000000005f7      0x769 main.o
                                        0xd2f (size before relaxing)
 .debug_str     0x0000000000000d60      0x123 crt/src/runtime/crt/common/crt_backend_api.o
                                        0xadf (size before relaxing)
 .debug_str     0x0000000000000e83      0x8d4 crt/src/runtime/crt/common/crt_runtime_api.o
                                       0x1575 (size before relaxing)
 .debug_str     0x0000000000001757      0x102 crt/src/runtime/crt/common/func_registry.o
                                        0xd47 (size before relaxing)
 .debug_str     0x0000000000001859       0xff crt/src/runtime/crt/common/ndarray.o
                                        0xc01 (size before relaxing)
 .debug_str     0x0000000000001958       0xc6 crt/src/runtime/crt/common/packed_func.o
                                        0xa3f (size before relaxing)
 .debug_str     0x0000000000001a1e      0x6c8 crt/src/runtime/crt/graph_executor/graph_executor.o
                                       0x1658 (size before relaxing)
 .debug_str     0x00000000000020e6      0x29f crt/src/runtime/crt/graph_executor/load_json.o
                                        0xddd (size before relaxing)
 .debug_str     0x0000000000002385      0x209 crt/src/runtime/crt/graph_executor_module/graph_executor_module.o
                                       0x13d5 (size before relaxing)
 .debug_str     0x000000000000258e      0x278 crt/src/runtime/crt/memory/page_allocator.o
                                        0xcad (size before relaxing)
 .debug_str     0x0000000000002806      0x17e crt/src/runtime/crt/memory/stack_allocator.o
                                        0x712 (size before relaxing)
 .debug_str     0x0000000000002984       0xb6 crt/src/runtime/crt/microtvm_rpc_common/crcccitt.o
                                        0x621 (size before relaxing)
 .debug_str     0x0000000000002a3a      0x171 /local/gerum/speech_recognition/external/hannah-tvm/tmp/TGC-VP/fw/bsp/env/tgfs-vp/init.o
                                        0x6ea (size before relaxing)
 .debug_str     0x0000000000002bab       0x9e delete.o
                                        0x17e (size before relaxing)
 .debug_str     0x0000000000002c49      0x31e crt/src/runtime/crt/microtvm_rpc_common/frame_buffer.o
                                        0x8e2 (size before relaxing)
 .debug_str     0x0000000000002f67      0x839 crt/src/runtime/crt/microtvm_rpc_common/framing.o
                                       0x12ea (size before relaxing)
 .debug_str     0x00000000000037a0      0xa74 crt/src/runtime/crt/microtvm_rpc_common/session.o
                                       0x19cb (size before relaxing)
 .debug_str     0x0000000000004214      0x18e crt/src/runtime/crt/microtvm_rpc_common/write_stream.o
                                        0x790 (size before relaxing)
 .debug_str     0x00000000000043a2     0x49ea crt/src/runtime/crt/microtvm_rpc_server/rpc_server.o
                                       0x6bdd (size before relaxing)
 .debug_str     0x0000000000008d8c       0x78 ./libwrap.a(malloc.o)
                                        0x12f (size before relaxing)
 .debug_str     0x0000000000008e04       0x84 ./libwrap.a(write.o)
                                        0x602 (size before relaxing)
 .debug_str     0x0000000000008e88       0x69 ./libwrap.a(isatty.o)
                                        0x1c2 (size before relaxing)
 .debug_str     0x0000000000008ef1       0x85 ./libwrap.a(sbrk.o)
                                        0x14d (size before relaxing)
 .debug_str     0x0000000000008f76       0x66 ./libwrap.a(_exit.o)
                                        0x1cc (size before relaxing)
 .debug_str     0x0000000000008fdc       0x65 ./libwrap.a(puts.o)
                                        0x5d1 (size before relaxing)
 .debug_str     0x0000000000009041       0x77 ./libwrap.a(write_hex.o)
                                        0x1e2 (size before relaxing)
 .debug_str     0x00000000000090b8      0x113 ./libwrap.a(printf.o)
                                        0x6a5 (size before relaxing)
 .debug_str     0x00000000000091cb       0x6f ./libwrap.a(lseek.o)
                                        0x5d3 (size before relaxing)
 .debug_str     0x000000000000923a       0x71 ./libwrap.a(read.o)
                                        0x61b (size before relaxing)
 .debug_str     0x00000000000092ab      0x169 ./libwrap.a(fstat.o)
                                        0x71f (size before relaxing)
 .debug_str     0x0000000000009414       0x67 ./libwrap.a(close.o)
                                        0x598 (size before relaxing)
 .debug_str     0x000000000000947b       0x69 ./libwrap.a(getpid.o)
                                        0x100 (size before relaxing)
 .debug_str     0x00000000000094e4       0x65 ./libwrap.a(kill.o)
                                        0x596 (size before relaxing)
 .debug_str     0x0000000000009549      0x345 /opt/pulp-riscv-gcc/bin/../lib/gcc/riscv32-unknown-elf/7.1.1/libgcc.a(_divdi3.o)
                                        0x847 (size before relaxing)
 .debug_str     0x000000000000988e        0xa /opt/pulp-riscv-gcc/bin/../lib/gcc/riscv32-unknown-elf/7.1.1/libgcc.a(_udivdi3.o)
                                        0x848 (size before relaxing)
 .debug_str     0x0000000000009898        0xa /opt/pulp-riscv-gcc/bin/../lib/gcc/riscv32-unknown-elf/7.1.1/libgcc.a(_umoddi3.o)
                                        0x848 (size before relaxing)
 .debug_str     0x00000000000098a2      0x256 /opt/pulp-riscv-gcc/bin/../lib/gcc/riscv32-unknown-elf/7.1.1/libgcc.a(adddf3.o)
                                        0x35f (size before relaxing)
 .debug_str     0x0000000000009af8      0x1c6 /opt/pulp-riscv-gcc/bin/../lib/gcc/riscv32-unknown-elf/7.1.1/libgcc.a(divdf3.o)
                                        0x421 (size before relaxing)
 .debug_str     0x0000000000009cbe       0xa5 /opt/pulp-riscv-gcc/bin/../lib/gcc/riscv32-unknown-elf/7.1.1/libgcc.a(ledf2.o)
                                        0x29d (size before relaxing)
 .debug_str     0x0000000000009d63      0x189 /opt/pulp-riscv-gcc/bin/../lib/gcc/riscv32-unknown-elf/7.1.1/libgcc.a(muldf3.o)
                                        0x479 (size before relaxing)
 .debug_str     0x0000000000009eec       0x97 /opt/pulp-riscv-gcc/bin/../lib/gcc/riscv32-unknown-elf/7.1.1/libgcc.a(floatsidf.o)
                                        0x30c (size before relaxing)
 .debug_str     0x0000000000009f83       0x96 /opt/pulp-riscv-gcc/bin/../lib/gcc/riscv32-unknown-elf/7.1.1/libgcc.a(eqtf2.o)
                                        0x276 (size before relaxing)
 .debug_str     0x000000000000a019       0x62 /opt/pulp-riscv-gcc/bin/../lib/gcc/riscv32-unknown-elf/7.1.1/libgcc.a(getf2.o)
                                        0x29a (size before relaxing)
 .debug_str     0x000000000000a07b       0x62 /opt/pulp-riscv-gcc/bin/../lib/gcc/riscv32-unknown-elf/7.1.1/libgcc.a(letf2.o)
                                        0x29a (size before relaxing)
 .debug_str     0x000000000000a0dd      0x2c3 /opt/pulp-riscv-gcc/bin/../lib/gcc/riscv32-unknown-elf/7.1.1/libgcc.a(multf3.o)
                                        0x600 (size before relaxing)
 .debug_str     0x000000000000a3a0       0xeb /opt/pulp-riscv-gcc/bin/../lib/gcc/riscv32-unknown-elf/7.1.1/libgcc.a(subtf3.o)
                                        0x4cd (size before relaxing)
 .debug_str     0x000000000000a48b       0x79 /opt/pulp-riscv-gcc/bin/../lib/gcc/riscv32-unknown-elf/7.1.1/libgcc.a(fixtfsi.o)
                                        0x2de (size before relaxing)
 .debug_str     0x000000000000a504       0x6a /opt/pulp-riscv-gcc/bin/../lib/gcc/riscv32-unknown-elf/7.1.1/libgcc.a(floatsitf.o)
                                        0x3a5 (size before relaxing)
 .debug_str     0x000000000000a56e       0x7b /opt/pulp-riscv-gcc/bin/../lib/gcc/riscv32-unknown-elf/7.1.1/libgcc.a(extenddftf2.o)
                                        0x2f2 (size before relaxing)
 .debug_str     0x000000000000a5e9       0x6c /opt/pulp-riscv-gcc/bin/../lib/gcc/riscv32-unknown-elf/7.1.1/libgcc.a(trunctfdf2.o)
                                        0x429 (size before relaxing)
 .debug_str     0x000000000000a655      0x78f /opt/pulp-riscv-gcc/bin/../lib/gcc/riscv32-unknown-elf/7.1.1/libgcc.a(_clz.o)
 .debug_str     0x000000000000a655        0x9 /opt/pulp-riscv-gcc/bin/../lib/gcc/riscv32-unknown-elf/7.1.1/libgcc.a(_clzsi2.o)
                                        0x7ac (size before relaxing)

.debug_ranges   0x0000000000000000     0x1c60
 .debug_ranges  0x0000000000000000       0x18 main.o
 .debug_ranges  0x0000000000000018       0x60 crt/src/runtime/crt/common/crt_runtime_api.o
 .debug_ranges  0x0000000000000078       0x18 crt/src/runtime/crt/graph_executor/load_json.o
 .debug_ranges  0x0000000000000090       0x30 crt/src/runtime/crt/microtvm_rpc_common/framing.o
 .debug_ranges  0x00000000000000c0       0x40 crt/src/runtime/crt/microtvm_rpc_common/session.o
 .debug_ranges  0x0000000000000100      0x430 crt/src/runtime/crt/microtvm_rpc_server/rpc_server.o
 .debug_ranges  0x0000000000000530      0x100 /opt/pulp-riscv-gcc/bin/../lib/gcc/riscv32-unknown-elf/7.1.1/libgcc.a(_divdi3.o)
 .debug_ranges  0x0000000000000630       0xf0 /opt/pulp-riscv-gcc/bin/../lib/gcc/riscv32-unknown-elf/7.1.1/libgcc.a(_udivdi3.o)
 .debug_ranges  0x0000000000000720       0xc0 /opt/pulp-riscv-gcc/bin/../lib/gcc/riscv32-unknown-elf/7.1.1/libgcc.a(_umoddi3.o)
 .debug_ranges  0x00000000000007e0      0x1a0 /opt/pulp-riscv-gcc/bin/../lib/gcc/riscv32-unknown-elf/7.1.1/libgcc.a(adddf3.o)
 .debug_ranges  0x0000000000000980      0x140 /opt/pulp-riscv-gcc/bin/../lib/gcc/riscv32-unknown-elf/7.1.1/libgcc.a(divdf3.o)
 .debug_ranges  0x0000000000000ac0       0x70 /opt/pulp-riscv-gcc/bin/../lib/gcc/riscv32-unknown-elf/7.1.1/libgcc.a(ledf2.o)
 .debug_ranges  0x0000000000000b30      0x200 /opt/pulp-riscv-gcc/bin/../lib/gcc/riscv32-unknown-elf/7.1.1/libgcc.a(muldf3.o)
 .debug_ranges  0x0000000000000d30       0x60 /opt/pulp-riscv-gcc/bin/../lib/gcc/riscv32-unknown-elf/7.1.1/libgcc.a(floatsidf.o)
 .debug_ranges  0x0000000000000d90       0x40 /opt/pulp-riscv-gcc/bin/../lib/gcc/riscv32-unknown-elf/7.1.1/libgcc.a(eqtf2.o)
 .debug_ranges  0x0000000000000dd0       0x50 /opt/pulp-riscv-gcc/bin/../lib/gcc/riscv32-unknown-elf/7.1.1/libgcc.a(getf2.o)
 .debug_ranges  0x0000000000000e20       0x50 /opt/pulp-riscv-gcc/bin/../lib/gcc/riscv32-unknown-elf/7.1.1/libgcc.a(letf2.o)
 .debug_ranges  0x0000000000000e70      0x850 /opt/pulp-riscv-gcc/bin/../lib/gcc/riscv32-unknown-elf/7.1.1/libgcc.a(multf3.o)
 .debug_ranges  0x00000000000016c0      0x390 /opt/pulp-riscv-gcc/bin/../lib/gcc/riscv32-unknown-elf/7.1.1/libgcc.a(subtf3.o)
 .debug_ranges  0x0000000000001a50       0x38 /opt/pulp-riscv-gcc/bin/../lib/gcc/riscv32-unknown-elf/7.1.1/libgcc.a(fixtfsi.o)
 .debug_ranges  0x0000000000001a88       0x78 /opt/pulp-riscv-gcc/bin/../lib/gcc/riscv32-unknown-elf/7.1.1/libgcc.a(floatsitf.o)
 .debug_ranges  0x0000000000001b00       0x98 /opt/pulp-riscv-gcc/bin/../lib/gcc/riscv32-unknown-elf/7.1.1/libgcc.a(extenddftf2.o)
 .debug_ranges  0x0000000000001b98       0xb0 /opt/pulp-riscv-gcc/bin/../lib/gcc/riscv32-unknown-elf/7.1.1/libgcc.a(trunctfdf2.o)
 .debug_ranges  0x0000000000001c48       0x18 /opt/pulp-riscv-gcc/bin/../lib/gcc/riscv32-unknown-elf/7.1.1/libgcc.a(_clzsi2.o)

.debug_loc      0x0000000000000000     0xdf66
 .debug_loc     0x0000000000000000      0x97c /opt/pulp-riscv-gcc/bin/../lib/gcc/riscv32-unknown-elf/7.1.1/libgcc.a(_divdi3.o)
 .debug_loc     0x000000000000097c      0xbf5 /opt/pulp-riscv-gcc/bin/../lib/gcc/riscv32-unknown-elf/7.1.1/libgcc.a(_udivdi3.o)
 .debug_loc     0x0000000000001571      0x9a4 /opt/pulp-riscv-gcc/bin/../lib/gcc/riscv32-unknown-elf/7.1.1/libgcc.a(_umoddi3.o)
 .debug_loc     0x0000000000001f15     0x1065 /opt/pulp-riscv-gcc/bin/../lib/gcc/riscv32-unknown-elf/7.1.1/libgcc.a(adddf3.o)
 .debug_loc     0x0000000000002f7a     0x1043 /opt/pulp-riscv-gcc/bin/../lib/gcc/riscv32-unknown-elf/7.1.1/libgcc.a(divdf3.o)
 .debug_loc     0x0000000000003fbd      0x16e /opt/pulp-riscv-gcc/bin/../lib/gcc/riscv32-unknown-elf/7.1.1/libgcc.a(ledf2.o)
 .debug_loc     0x000000000000412b      0xe0d /opt/pulp-riscv-gcc/bin/../lib/gcc/riscv32-unknown-elf/7.1.1/libgcc.a(muldf3.o)
 .debug_loc     0x0000000000004f38      0x134 /opt/pulp-riscv-gcc/bin/../lib/gcc/riscv32-unknown-elf/7.1.1/libgcc.a(floatsidf.o)
 .debug_loc     0x000000000000506c       0x87 /opt/pulp-riscv-gcc/bin/../lib/gcc/riscv32-unknown-elf/7.1.1/libgcc.a(eqtf2.o)
 .debug_loc     0x00000000000050f3       0xf5 /opt/pulp-riscv-gcc/bin/../lib/gcc/riscv32-unknown-elf/7.1.1/libgcc.a(getf2.o)
 .debug_loc     0x00000000000051e8       0xf5 /opt/pulp-riscv-gcc/bin/../lib/gcc/riscv32-unknown-elf/7.1.1/libgcc.a(letf2.o)
 .debug_loc     0x00000000000052dd     0x5975 /opt/pulp-riscv-gcc/bin/../lib/gcc/riscv32-unknown-elf/7.1.1/libgcc.a(multf3.o)
 .debug_loc     0x000000000000ac52     0x22db /opt/pulp-riscv-gcc/bin/../lib/gcc/riscv32-unknown-elf/7.1.1/libgcc.a(subtf3.o)
 .debug_loc     0x000000000000cf2d      0x325 /opt/pulp-riscv-gcc/bin/../lib/gcc/riscv32-unknown-elf/7.1.1/libgcc.a(fixtfsi.o)
 .debug_loc     0x000000000000d252      0x22d /opt/pulp-riscv-gcc/bin/../lib/gcc/riscv32-unknown-elf/7.1.1/libgcc.a(floatsitf.o)
 .debug_loc     0x000000000000d47f      0x3c3 /opt/pulp-riscv-gcc/bin/../lib/gcc/riscv32-unknown-elf/7.1.1/libgcc.a(extenddftf2.o)
 .debug_loc     0x000000000000d842      0x6b9 /opt/pulp-riscv-gcc/bin/../lib/gcc/riscv32-unknown-elf/7.1.1/libgcc.a(trunctfdf2.o)
 .debug_loc     0x000000000000defb       0x6b /opt/pulp-riscv-gcc/bin/../lib/gcc/riscv32-unknown-elf/7.1.1/libgcc.a(_clzsi2.o)
